Archive member included because of file (symbol)

d:/program files - hdd/mplab compiler x32/bin/bin/../../lib/gcc/pic32mx/4.8.3/../../../../pic32mx/lib\libmchp_peripheral.a(read_core_timer_lib.o)
                              build/default/production/_ext/1472/swDelay.o (ReadCoreTimer)
d:/program files - hdd/mplab compiler x32/bin/bin/../../lib/gcc/pic32mx/4.8.3/../../../../pic32mx/lib\libmchp_peripheral_32MX370F512L.a(pcache.o)
                              build/default/production/_ext/1472/hardware.o (CheKseg0CacheOn)
d:/program files - hdd/mplab compiler x32/bin/bin/../../lib/gcc/pic32mx/4.8.3/../../../../pic32mx/lib\libmchp_peripheral_32MX370F512L.a(int_configure_system_lib.o)
                              build/default/production/_ext/1472/hardware.o (INTConfigureSystem)
d:/program files - hdd/mplab compiler x32/bin/bin/../../lib/gcc/pic32mx/4.8.3/../../../../pic32mx/lib\libmchp_peripheral_32MX370F512L.a(int_enable_interrupts_lib.o)
                              build/default/production/_ext/1472/hardware.o (INTEnableInterrupts)
d:/program files - hdd/mplab compiler x32/bin/bin/../../lib/gcc/pic32mx/4.8.3/../../../../pic32mx/lib\libmchp_peripheral_32MX370F512L.a(int_disable_interrupts_lib.o)
                              build/default/production/_ext/1472/hardware.o (INTDisableInterrupts)
d:/program files - hdd/mplab compiler x32/bin/bin/../../lib/gcc/pic32mx/4.8.3/../../../../pic32mx/lib\libmchp_peripheral_32MX370F512L.a(int_restore_interrupts_lib.o)
                              build/default/production/_ext/1472/hardware.o (INTRestoreInterrupts)
d:/program files - hdd/mplab compiler x32/bin/bin/../../lib/gcc/pic32mx/4.8.3/../../../../pic32mx/lib\libmchp_peripheral_32MX370F512L.a(int_tbl_lib.o)
                              build/default/production/_ext/1472/uart2.o (INTClearFlag)
d:/program files - hdd/mplab compiler x32/bin/bin/../../lib/gcc/pic32mx/4.8.3/../../../../pic32mx/lib\libmchp_peripheral_32MX370F512L.a(dma_chn_set_ev_enable_flags_lib.o)
                              build/default/production/_ext/1472/DMA_UART2.o (DmaChnSetEvEnableFlags)
d:/program files - hdd/mplab compiler x32/bin/bin/../../lib/gcc/pic32mx/4.8.3/../../../../pic32mx/lib\libmchp_peripheral_32MX370F512L.a(dma_chn_open_lib.o)
                              build/default/production/_ext/1472/DMA_UART2.o (DmaChnOpen)
d:/program files - hdd/mplab compiler x32/bin/bin/../../lib/gcc/pic32mx/4.8.3/../../../../pic32mx/lib\libmchp_peripheral_32MX370F512L.a(dma_chn_enable_lib.o)
                              build/default/production/_ext/1472/DMA_UART2.o (DmaChnEnable)
d:/program files - hdd/mplab compiler x32/bin/bin/../../lib/gcc/pic32mx/4.8.3/../../../../pic32mx/lib\libmchp_peripheral_32MX370F512L.a(dma_chn_get_ev_flags_lib.o)
                              build/default/production/_ext/1472/DMA_UART2.o (DmaChnGetEvFlags)
d:/program files - hdd/mplab compiler x32/bin/bin/../../lib/gcc/pic32mx/4.8.3/../../../../pic32mx/lib\libmchp_peripheral_32MX370F512L.a(dma_chn_write_event_control_flags_lib.o)
                              build/default/production/_ext/1472/DMA_UART2.o (DmaChnWriteEventControlFlags)
d:/program files - hdd/mplab compiler x32/bin/bin/../../lib/gcc/pic32mx/4.8.3/../../../../pic32mx/lib\libmchp_peripheral_32MX370F512L.a(dma_chn_set_match_pattern_lib.o)
                              build/default/production/_ext/1472/DMA_UART2.o (DmaChnSetMatchPattern)
d:/program files - hdd/mplab compiler x32/bin/bin/../../lib/gcc/pic32mx/4.8.3/../../../../pic32mx/lib\libmchp_peripheral_32MX370F512L.a(dma_chn_set_txfer_lib.o)
                              build/default/production/_ext/1472/DMA_UART2.o (DmaChnSetTxfer)
d:/program files - hdd/mplab compiler x32/bin/bin/../../lib/gcc/pic32mx/4.8.3/../../../../pic32mx/lib\libmchp_peripheral_32MX370F512L.a(dma_reg_map_tbl_lib.o)
                              d:/program files - hdd/mplab compiler x32/bin/bin/../../lib/gcc/pic32mx/4.8.3/../../../../pic32mx/lib\libmchp_peripheral_32MX370F512L.a(dma_chn_set_ev_enable_flags_lib.o) (_DmaMapTbl)
d:/program files - hdd/mplab compiler x32/bin/bin/../../lib/gcc/pic32mx/4.8.3/../../../../pic32mx/lib\libmchp_peripheral_32MX370F512L.a(port_set_pins_digital_in_lib.o)
                              build/default/production/_ext/1472/LCDlib.o (PORTSetPinsDigitalIn)
d:/program files - hdd/mplab compiler x32/bin/bin/../../lib/gcc/pic32mx/4.8.3/../../../../pic32mx/lib\libmchp_peripheral_32MX370F512L.a(port_set_pins_digital_out_lib.o)
                              build/default/production/_ext/1472/LCDlib.o (PORTSetPinsDigitalOut)
d:/program files - hdd/mplab compiler x32/bin/bin/../../lib/gcc/pic32mx/4.8.3/../../../../pic32mx/lib\libmchp_peripheral_32MX370F512L.a(_ports_tbl_libp.o)
                              d:/program files - hdd/mplab compiler x32/bin/bin/../../lib/gcc/pic32mx/4.8.3/../../../../pic32mx/lib\libmchp_peripheral_32MX370F512L.a(port_set_pins_digital_in_lib.o) (PortRegTbl)
d:/program files - hdd/mplab compiler x32/bin/bin/../../lib/gcc/pic32mx/4.8.3/../../../../pic32mx/lib\libmchp_peripheral_32MX370F512L.a(uart_lib.o)
                              build/default/production/_ext/1472/uart4.o (uartReg)
d:/program files - hdd/mplab compiler x32/bin/bin/../../lib/gcc/pic32mx/4.8.3/../../../../pic32mx/lib\libmchp_peripheral_32MX370F512L.a(I2CAcknowledgeByte.o)
                              build/default/production/_ext/1472/i2c_lib.o (I2CAcknowledgeByte)
d:/program files - hdd/mplab compiler x32/bin/bin/../../lib/gcc/pic32mx/4.8.3/../../../../pic32mx/lib\libmchp_peripheral_32MX370F512L.a(I2CAcknowledgeHasCompleted.o)
                              build/default/production/_ext/1472/i2c_lib.o (I2CAcknowledgeHasCompleted)
d:/program files - hdd/mplab compiler x32/bin/bin/../../lib/gcc/pic32mx/4.8.3/../../../../pic32mx/lib\libmchp_peripheral_32MX370F512L.a(I2CBusIsIdle.o)
                              build/default/production/_ext/1472/i2c_lib.o (I2CBusIsIdle)
d:/program files - hdd/mplab compiler x32/bin/bin/../../lib/gcc/pic32mx/4.8.3/../../../../pic32mx/lib\libmchp_peripheral_32MX370F512L.a(I2CByteWasAcknowledged.o)
                              build/default/production/_ext/1472/i2c_lib.o (I2CByteWasAcknowledged)
d:/program files - hdd/mplab compiler x32/bin/bin/../../lib/gcc/pic32mx/4.8.3/../../../../pic32mx/lib\libmchp_peripheral_32MX370F512L.a(I2CEnable.o)
                              build/default/production/_ext/1472/i2c_lib.o (I2CEnable)
d:/program files - hdd/mplab compiler x32/bin/bin/../../lib/gcc/pic32mx/4.8.3/../../../../pic32mx/lib\libmchp_peripheral_32MX370F512L.a(I2CGetByte.o)
                              build/default/production/_ext/1472/i2c_lib.o (I2CGetByte)
d:/program files - hdd/mplab compiler x32/bin/bin/../../lib/gcc/pic32mx/4.8.3/../../../../pic32mx/lib\libmchp_peripheral_32MX370F512L.a(I2CGetStatus.o)
                              build/default/production/_ext/1472/i2c_lib.o (I2CGetStatus)
d:/program files - hdd/mplab compiler x32/bin/bin/../../lib/gcc/pic32mx/4.8.3/../../../../pic32mx/lib\libmchp_peripheral_32MX370F512L.a(I2CReceivedDataIsAvailable.o)
                              build/default/production/_ext/1472/i2c_lib.o (I2CReceivedDataIsAvailable)
d:/program files - hdd/mplab compiler x32/bin/bin/../../lib/gcc/pic32mx/4.8.3/../../../../pic32mx/lib\libmchp_peripheral_32MX370F512L.a(I2CReceiverEnable.o)
                              build/default/production/_ext/1472/i2c_lib.o (I2CReceiverEnable)
d:/program files - hdd/mplab compiler x32/bin/bin/../../lib/gcc/pic32mx/4.8.3/../../../../pic32mx/lib\libmchp_peripheral_32MX370F512L.a(I2CRepeatStart.o)
                              build/default/production/_ext/1472/i2c_lib.o (I2CRepeatStart)
d:/program files - hdd/mplab compiler x32/bin/bin/../../lib/gcc/pic32mx/4.8.3/../../../../pic32mx/lib\libmchp_peripheral_32MX370F512L.a(I2CSendByte.o)
                              build/default/production/_ext/1472/i2c_lib.o (I2CSendByte)
d:/program files - hdd/mplab compiler x32/bin/bin/../../lib/gcc/pic32mx/4.8.3/../../../../pic32mx/lib\libmchp_peripheral_32MX370F512L.a(I2CSetFrequency.o)
                              build/default/production/_ext/1472/i2c_lib.o (I2CSetFrequency)
d:/program files - hdd/mplab compiler x32/bin/bin/../../lib/gcc/pic32mx/4.8.3/../../../../pic32mx/lib\libmchp_peripheral_32MX370F512L.a(I2CStart.o)
                              build/default/production/_ext/1472/i2c_lib.o (I2CStart)
d:/program files - hdd/mplab compiler x32/bin/bin/../../lib/gcc/pic32mx/4.8.3/../../../../pic32mx/lib\libmchp_peripheral_32MX370F512L.a(I2CStop.o)
                              build/default/production/_ext/1472/i2c_lib.o (I2CStop)
d:/program files - hdd/mplab compiler x32/bin/bin/../../lib/gcc/pic32mx/4.8.3/../../../../pic32mx/lib\libmchp_peripheral_32MX370F512L.a(I2CTransmissionHasCompleted.o)
                              build/default/production/_ext/1472/i2c_lib.o (I2CTransmissionHasCompleted)
d:/program files - hdd/mplab compiler x32/bin/bin/../../lib/gcc/pic32mx/4.8.3/../../../../pic32mx/lib\libmchp_peripheral_32MX370F512L.a(I2CTransmitterIsReady.o)
                              build/default/production/_ext/1472/i2c_lib.o (I2CTransmitterIsReady)
d:/program files - hdd/mplab compiler x32/bin/bin/../../lib/gcc/pic32mx/4.8.3/../../../../pic32mx/lib\libmchp_peripheral_32MX370F512L.a(I2CPrivate.o)
                              d:/program files - hdd/mplab compiler x32/bin/bin/../../lib/gcc/pic32mx/4.8.3/../../../../pic32mx/lib\libmchp_peripheral_32MX370F512L.a(I2CAcknowledgeByte.o) (i2cBase)
d:/program files - hdd/mplab compiler x32/bin/bin/../../lib/gcc/pic32mx/4.8.3/../../../../pic32mx/lib\libpic32.a(strcpy.o)
                              build/default/production/_ext/1472/DMA_UART2.o (strcpy)
d:/program files - hdd/mplab compiler x32/bin/bin/../../lib/gcc/pic32mx/4.8.3/../../../../pic32mx/lib\libpic32.a(strlen.o)
                              build/default/production/_ext/1472/GPS_I2C.o (strlen)
d:/program files - hdd/mplab compiler x32/bin/bin/../../lib/gcc/pic32mx/4.8.3/../../../../pic32mx/lib\libpic32.a(default-bootstrap-exception-handler.o)
                              d:/program files - hdd/mplab compiler x32/bin/bin/../../lib/gcc/pic32mx/4.8.3/../../../../pic32mx/lib/./proc/32MX370F512L/crt0_mips32r2.o (_bootstrap_exception_handler)
d:/program files - hdd/mplab compiler x32/bin/bin/../../lib/gcc/pic32mx/4.8.3/../../../../pic32mx/lib\libpic32.a(default-on-reset.o)
                              d:/program files - hdd/mplab compiler x32/bin/bin/../../lib/gcc/pic32mx/4.8.3/../../../../pic32mx/lib/./proc/32MX370F512L/crt0_mips32r2.o (_on_reset)
d:/program files - hdd/mplab compiler x32/bin/bin/../../lib/gcc/pic32mx/4.8.3/../../../../pic32mx/lib\libpic32.a(default-on-bootstrap.o)
                              d:/program files - hdd/mplab compiler x32/bin/bin/../../lib/gcc/pic32mx/4.8.3/../../../../pic32mx/lib/./proc/32MX370F512L/crt0_mips32r2.o (_on_bootstrap)
d:/program files - hdd/mplab compiler x32/bin/bin/../../lib/gcc/pic32mx/4.8.3/../../../../pic32mx/lib\libpic32.a(default-nmi-handler.o)
                              d:/program files - hdd/mplab compiler x32/bin/bin/../../lib/gcc/pic32mx/4.8.3/../../../../pic32mx/lib/./proc/32MX370F512L/crt0_mips32r2.o (_nmi_handler)
d:/program files - hdd/mplab compiler x32/bin/bin/../../lib/gcc/pic32mx/4.8.3/../../../../pic32mx/lib\libpic32.a(general-exception.o)
                              d:/program files - hdd/mplab compiler x32/bin/bin/../../lib/gcc/pic32mx/4.8.3/../../../../pic32mx/lib/./proc/32MX370F512L/crt0_mips32r2.o (_general_exception_context)
d:/program files - hdd/mplab compiler x32/bin/bin/../../lib/gcc/pic32mx/4.8.3/../../../../pic32mx/lib\libpic32.a(vector0.o)
                              d:/program files - hdd/mplab compiler x32/bin/bin/../../lib/gcc/pic32mx/4.8.3/../../../../pic32mx/lib/./proc/32MX370F512L\default_isr_vectors.o (__vector_dispatch_0)
d:/program files - hdd/mplab compiler x32/bin/bin/../../lib/gcc/pic32mx/4.8.3/../../../../pic32mx/lib\libpic32.a(vector1.o)
                              d:/program files - hdd/mplab compiler x32/bin/bin/../../lib/gcc/pic32mx/4.8.3/../../../../pic32mx/lib/./proc/32MX370F512L\default_isr_vectors.o (__vector_dispatch_1)
d:/program files - hdd/mplab compiler x32/bin/bin/../../lib/gcc/pic32mx/4.8.3/../../../../pic32mx/lib\libpic32.a(vector2.o)
                              d:/program files - hdd/mplab compiler x32/bin/bin/../../lib/gcc/pic32mx/4.8.3/../../../../pic32mx/lib/./proc/32MX370F512L\default_isr_vectors.o (__vector_dispatch_2)
d:/program files - hdd/mplab compiler x32/bin/bin/../../lib/gcc/pic32mx/4.8.3/../../../../pic32mx/lib\libpic32.a(vector3.o)
                              d:/program files - hdd/mplab compiler x32/bin/bin/../../lib/gcc/pic32mx/4.8.3/../../../../pic32mx/lib/./proc/32MX370F512L\default_isr_vectors.o (__vector_dispatch_3)
d:/program files - hdd/mplab compiler x32/bin/bin/../../lib/gcc/pic32mx/4.8.3/../../../../pic32mx/lib\libpic32.a(vector5.o)
                              d:/program files - hdd/mplab compiler x32/bin/bin/../../lib/gcc/pic32mx/4.8.3/../../../../pic32mx/lib/./proc/32MX370F512L\default_isr_vectors.o (__vector_dispatch_5)
d:/program files - hdd/mplab compiler x32/bin/bin/../../lib/gcc/pic32mx/4.8.3/../../../../pic32mx/lib\libpic32.a(vector6.o)
                              d:/program files - hdd/mplab compiler x32/bin/bin/../../lib/gcc/pic32mx/4.8.3/../../../../pic32mx/lib/./proc/32MX370F512L\default_isr_vectors.o (__vector_dispatch_6)
d:/program files - hdd/mplab compiler x32/bin/bin/../../lib/gcc/pic32mx/4.8.3/../../../../pic32mx/lib\libpic32.a(vector7.o)
                              d:/program files - hdd/mplab compiler x32/bin/bin/../../lib/gcc/pic32mx/4.8.3/../../../../pic32mx/lib/./proc/32MX370F512L\default_isr_vectors.o (__vector_dispatch_7)
d:/program files - hdd/mplab compiler x32/bin/bin/../../lib/gcc/pic32mx/4.8.3/../../../../pic32mx/lib\libpic32.a(vector8.o)
                              d:/program files - hdd/mplab compiler x32/bin/bin/../../lib/gcc/pic32mx/4.8.3/../../../../pic32mx/lib/./proc/32MX370F512L\default_isr_vectors.o (__vector_dispatch_8)
d:/program files - hdd/mplab compiler x32/bin/bin/../../lib/gcc/pic32mx/4.8.3/../../../../pic32mx/lib\libpic32.a(vector9.o)
                              d:/program files - hdd/mplab compiler x32/bin/bin/../../lib/gcc/pic32mx/4.8.3/../../../../pic32mx/lib/./proc/32MX370F512L\default_isr_vectors.o (__vector_dispatch_9)
d:/program files - hdd/mplab compiler x32/bin/bin/../../lib/gcc/pic32mx/4.8.3/../../../../pic32mx/lib\libpic32.a(vector10.o)
                              d:/program files - hdd/mplab compiler x32/bin/bin/../../lib/gcc/pic32mx/4.8.3/../../../../pic32mx/lib/./proc/32MX370F512L\default_isr_vectors.o (__vector_dispatch_10)
d:/program files - hdd/mplab compiler x32/bin/bin/../../lib/gcc/pic32mx/4.8.3/../../../../pic32mx/lib\libpic32.a(vector11.o)
                              d:/program files - hdd/mplab compiler x32/bin/bin/../../lib/gcc/pic32mx/4.8.3/../../../../pic32mx/lib/./proc/32MX370F512L\default_isr_vectors.o (__vector_dispatch_11)
d:/program files - hdd/mplab compiler x32/bin/bin/../../lib/gcc/pic32mx/4.8.3/../../../../pic32mx/lib\libpic32.a(vector12.o)
                              d:/program files - hdd/mplab compiler x32/bin/bin/../../lib/gcc/pic32mx/4.8.3/../../../../pic32mx/lib/./proc/32MX370F512L\default_isr_vectors.o (__vector_dispatch_12)
d:/program files - hdd/mplab compiler x32/bin/bin/../../lib/gcc/pic32mx/4.8.3/../../../../pic32mx/lib\libpic32.a(vector13.o)
                              d:/program files - hdd/mplab compiler x32/bin/bin/../../lib/gcc/pic32mx/4.8.3/../../../../pic32mx/lib/./proc/32MX370F512L\default_isr_vectors.o (__vector_dispatch_13)
d:/program files - hdd/mplab compiler x32/bin/bin/../../lib/gcc/pic32mx/4.8.3/../../../../pic32mx/lib\libpic32.a(vector14.o)
                              d:/program files - hdd/mplab compiler x32/bin/bin/../../lib/gcc/pic32mx/4.8.3/../../../../pic32mx/lib/./proc/32MX370F512L\default_isr_vectors.o (__vector_dispatch_14)
d:/program files - hdd/mplab compiler x32/bin/bin/../../lib/gcc/pic32mx/4.8.3/../../../../pic32mx/lib\libpic32.a(vector15.o)
                              d:/program files - hdd/mplab compiler x32/bin/bin/../../lib/gcc/pic32mx/4.8.3/../../../../pic32mx/lib/./proc/32MX370F512L\default_isr_vectors.o (__vector_dispatch_15)
d:/program files - hdd/mplab compiler x32/bin/bin/../../lib/gcc/pic32mx/4.8.3/../../../../pic32mx/lib\libpic32.a(vector16.o)
                              d:/program files - hdd/mplab compiler x32/bin/bin/../../lib/gcc/pic32mx/4.8.3/../../../../pic32mx/lib/./proc/32MX370F512L\default_isr_vectors.o (__vector_dispatch_16)
d:/program files - hdd/mplab compiler x32/bin/bin/../../lib/gcc/pic32mx/4.8.3/../../../../pic32mx/lib\libpic32.a(vector17.o)
                              d:/program files - hdd/mplab compiler x32/bin/bin/../../lib/gcc/pic32mx/4.8.3/../../../../pic32mx/lib/./proc/32MX370F512L\default_isr_vectors.o (__vector_dispatch_17)
d:/program files - hdd/mplab compiler x32/bin/bin/../../lib/gcc/pic32mx/4.8.3/../../../../pic32mx/lib\libpic32.a(vector18.o)
                              d:/program files - hdd/mplab compiler x32/bin/bin/../../lib/gcc/pic32mx/4.8.3/../../../../pic32mx/lib/./proc/32MX370F512L\default_isr_vectors.o (__vector_dispatch_18)
d:/program files - hdd/mplab compiler x32/bin/bin/../../lib/gcc/pic32mx/4.8.3/../../../../pic32mx/lib\libpic32.a(vector19.o)
                              d:/program files - hdd/mplab compiler x32/bin/bin/../../lib/gcc/pic32mx/4.8.3/../../../../pic32mx/lib/./proc/32MX370F512L\default_isr_vectors.o (__vector_dispatch_19)
d:/program files - hdd/mplab compiler x32/bin/bin/../../lib/gcc/pic32mx/4.8.3/../../../../pic32mx/lib\libpic32.a(vector20.o)
                              d:/program files - hdd/mplab compiler x32/bin/bin/../../lib/gcc/pic32mx/4.8.3/../../../../pic32mx/lib/./proc/32MX370F512L\default_isr_vectors.o (__vector_dispatch_20)
d:/program files - hdd/mplab compiler x32/bin/bin/../../lib/gcc/pic32mx/4.8.3/../../../../pic32mx/lib\libpic32.a(vector21.o)
                              d:/program files - hdd/mplab compiler x32/bin/bin/../../lib/gcc/pic32mx/4.8.3/../../../../pic32mx/lib/./proc/32MX370F512L\default_isr_vectors.o (__vector_dispatch_21)
d:/program files - hdd/mplab compiler x32/bin/bin/../../lib/gcc/pic32mx/4.8.3/../../../../pic32mx/lib\libpic32.a(vector22.o)
                              d:/program files - hdd/mplab compiler x32/bin/bin/../../lib/gcc/pic32mx/4.8.3/../../../../pic32mx/lib/./proc/32MX370F512L\default_isr_vectors.o (__vector_dispatch_22)
d:/program files - hdd/mplab compiler x32/bin/bin/../../lib/gcc/pic32mx/4.8.3/../../../../pic32mx/lib\libpic32.a(vector23.o)
                              d:/program files - hdd/mplab compiler x32/bin/bin/../../lib/gcc/pic32mx/4.8.3/../../../../pic32mx/lib/./proc/32MX370F512L\default_isr_vectors.o (__vector_dispatch_23)
d:/program files - hdd/mplab compiler x32/bin/bin/../../lib/gcc/pic32mx/4.8.3/../../../../pic32mx/lib\libpic32.a(vector24.o)
                              d:/program files - hdd/mplab compiler x32/bin/bin/../../lib/gcc/pic32mx/4.8.3/../../../../pic32mx/lib/./proc/32MX370F512L\default_isr_vectors.o (__vector_dispatch_24)
d:/program files - hdd/mplab compiler x32/bin/bin/../../lib/gcc/pic32mx/4.8.3/../../../../pic32mx/lib\libpic32.a(vector25.o)
                              d:/program files - hdd/mplab compiler x32/bin/bin/../../lib/gcc/pic32mx/4.8.3/../../../../pic32mx/lib/./proc/32MX370F512L\default_isr_vectors.o (__vector_dispatch_25)
d:/program files - hdd/mplab compiler x32/bin/bin/../../lib/gcc/pic32mx/4.8.3/../../../../pic32mx/lib\libpic32.a(vector26.o)
                              d:/program files - hdd/mplab compiler x32/bin/bin/../../lib/gcc/pic32mx/4.8.3/../../../../pic32mx/lib/./proc/32MX370F512L\default_isr_vectors.o (__vector_dispatch_26)
d:/program files - hdd/mplab compiler x32/bin/bin/../../lib/gcc/pic32mx/4.8.3/../../../../pic32mx/lib\libpic32.a(vector27.o)
                              d:/program files - hdd/mplab compiler x32/bin/bin/../../lib/gcc/pic32mx/4.8.3/../../../../pic32mx/lib/./proc/32MX370F512L\default_isr_vectors.o (__vector_dispatch_27)
d:/program files - hdd/mplab compiler x32/bin/bin/../../lib/gcc/pic32mx/4.8.3/../../../../pic32mx/lib\libpic32.a(vector28.o)
                              d:/program files - hdd/mplab compiler x32/bin/bin/../../lib/gcc/pic32mx/4.8.3/../../../../pic32mx/lib/./proc/32MX370F512L\default_isr_vectors.o (__vector_dispatch_28)
d:/program files - hdd/mplab compiler x32/bin/bin/../../lib/gcc/pic32mx/4.8.3/../../../../pic32mx/lib\libpic32.a(vector29.o)
                              d:/program files - hdd/mplab compiler x32/bin/bin/../../lib/gcc/pic32mx/4.8.3/../../../../pic32mx/lib/./proc/32MX370F512L\default_isr_vectors.o (__vector_dispatch_29)
d:/program files - hdd/mplab compiler x32/bin/bin/../../lib/gcc/pic32mx/4.8.3/../../../../pic32mx/lib\libpic32.a(vector30.o)
                              d:/program files - hdd/mplab compiler x32/bin/bin/../../lib/gcc/pic32mx/4.8.3/../../../../pic32mx/lib/./proc/32MX370F512L\default_isr_vectors.o (__vector_dispatch_30)
d:/program files - hdd/mplab compiler x32/bin/bin/../../lib/gcc/pic32mx/4.8.3/../../../../pic32mx/lib\libpic32.a(vector31.o)
                              d:/program files - hdd/mplab compiler x32/bin/bin/../../lib/gcc/pic32mx/4.8.3/../../../../pic32mx/lib/./proc/32MX370F512L\default_isr_vectors.o (__vector_dispatch_31)
d:/program files - hdd/mplab compiler x32/bin/bin/../../lib/gcc/pic32mx/4.8.3/../../../../pic32mx/lib\libpic32.a(vector32.o)
                              d:/program files - hdd/mplab compiler x32/bin/bin/../../lib/gcc/pic32mx/4.8.3/../../../../pic32mx/lib/./proc/32MX370F512L\default_isr_vectors.o (__vector_dispatch_32)
d:/program files - hdd/mplab compiler x32/bin/bin/../../lib/gcc/pic32mx/4.8.3/../../../../pic32mx/lib\libpic32.a(vector34.o)
                              d:/program files - hdd/mplab compiler x32/bin/bin/../../lib/gcc/pic32mx/4.8.3/../../../../pic32mx/lib/./proc/32MX370F512L\default_isr_vectors.o (__vector_dispatch_34)
d:/program files - hdd/mplab compiler x32/bin/bin/../../lib/gcc/pic32mx/4.8.3/../../../../pic32mx/lib\libpic32.a(vector35.o)
                              d:/program files - hdd/mplab compiler x32/bin/bin/../../lib/gcc/pic32mx/4.8.3/../../../../pic32mx/lib/./proc/32MX370F512L\default_isr_vectors.o (__vector_dispatch_35)
d:/program files - hdd/mplab compiler x32/bin/bin/../../lib/gcc/pic32mx/4.8.3/../../../../pic32mx/lib\libpic32.a(vector37.o)
                              d:/program files - hdd/mplab compiler x32/bin/bin/../../lib/gcc/pic32mx/4.8.3/../../../../pic32mx/lib/./proc/32MX370F512L\default_isr_vectors.o (__vector_dispatch_37)
d:/program files - hdd/mplab compiler x32/bin/bin/../../lib/gcc/pic32mx/4.8.3/../../../../pic32mx/lib\libpic32.a(vector38.o)
                              d:/program files - hdd/mplab compiler x32/bin/bin/../../lib/gcc/pic32mx/4.8.3/../../../../pic32mx/lib/./proc/32MX370F512L\default_isr_vectors.o (__vector_dispatch_38)
d:/program files - hdd/mplab compiler x32/bin/bin/../../lib/gcc/pic32mx/4.8.3/../../../../pic32mx/lib\libpic32.a(vector39.o)
                              d:/program files - hdd/mplab compiler x32/bin/bin/../../lib/gcc/pic32mx/4.8.3/../../../../pic32mx/lib/./proc/32MX370F512L\default_isr_vectors.o (__vector_dispatch_39)
d:/program files - hdd/mplab compiler x32/bin/bin/../../lib/gcc/pic32mx/4.8.3/../../../../pic32mx/lib\libpic32.a(vector40.o)
                              d:/program files - hdd/mplab compiler x32/bin/bin/../../lib/gcc/pic32mx/4.8.3/../../../../pic32mx/lib/./proc/32MX370F512L\default_isr_vectors.o (__vector_dispatch_40)
d:/program files - hdd/mplab compiler x32/bin/bin/../../lib/gcc/pic32mx/4.8.3/../../../../pic32mx/lib\libpic32.a(vector41.o)
                              d:/program files - hdd/mplab compiler x32/bin/bin/../../lib/gcc/pic32mx/4.8.3/../../../../pic32mx/lib/./proc/32MX370F512L\default_isr_vectors.o (__vector_dispatch_41)
d:/program files - hdd/mplab compiler x32/bin/bin/../../lib/gcc/pic32mx/4.8.3/../../../../pic32mx/lib\libpic32.a(vector42.o)
                              d:/program files - hdd/mplab compiler x32/bin/bin/../../lib/gcc/pic32mx/4.8.3/../../../../pic32mx/lib/./proc/32MX370F512L\default_isr_vectors.o (__vector_dispatch_42)
d:/program files - hdd/mplab compiler x32/bin/bin/../../lib/gcc/pic32mx/4.8.3/../../../../pic32mx/lib\libpic32.a(vector44.o)
                              d:/program files - hdd/mplab compiler x32/bin/bin/../../lib/gcc/pic32mx/4.8.3/../../../../pic32mx/lib/./proc/32MX370F512L\default_isr_vectors.o (__vector_dispatch_44)
d:/program files - hdd/mplab compiler x32/bin/bin/../../lib/gcc/pic32mx/4.8.3/../../../../pic32mx/lib\libpic32.a(vector45.o)
                              d:/program files - hdd/mplab compiler x32/bin/bin/../../lib/gcc/pic32mx/4.8.3/../../../../pic32mx/lib/./proc/32MX370F512L\default_isr_vectors.o (__vector_dispatch_45)
d:/program files - hdd/mplab compiler x32/bin/bin/../../lib/gcc/pic32mx/4.8.3/../../../../pic32mx/lib\libpic32.a(default-general-exception-handler.o)
                              d:/program files - hdd/mplab compiler x32/bin/bin/../../lib/gcc/pic32mx/4.8.3/../../../../pic32mx/lib\libpic32.a(general-exception.o) (_general_exception_handler)
d:/program files - hdd/mplab compiler x32/bin/bin/../../lib/gcc/pic32mx/4.8.3/../../../../pic32mx/lib\libpic32.a(defaultinterrupt.o)
                              d:/program files - hdd/mplab compiler x32/bin/bin/../../lib/gcc/pic32mx/4.8.3/../../../../pic32mx/lib\libpic32.a(vector0.o) (_DefaultInterrupt)
d:/program files - hdd/mplab compiler x32/bin/bin/../../lib/gcc/pic32mx/4.8.3/../../../../pic32mx/lib\libc.a(ctype.o)
                              build/default/production/_ext/1472/Gamepad.o (_ctype)
d:/program files - hdd/mplab compiler x32/bin/bin/../../lib/gcc/pic32mx/4.8.3/../../../../pic32mx/lib\libc.a(puts.o)
                              build/default/production/_ext/1472/main.o (puts)
d:/program files - hdd/mplab compiler x32/bin/bin/../../lib/gcc/pic32mx/4.8.3/../../../../pic32mx/lib\libc.a(strchr.o)
                              build/default/production/_ext/1472/GPS_I2C.o (strchr)
d:/program files - hdd/mplab compiler x32/bin/bin/../../lib/gcc/pic32mx/4.8.3/../../../../pic32mx/lib\libc.a(strstr.o)
                              build/default/production/_ext/1472/GPS_I2C.o (strstr)
d:/program files - hdd/mplab compiler x32/bin/bin/../../lib/gcc/pic32mx/4.8.3/../../../../pic32mx/lib\libc.a(strtol.o)
                              build/default/production/_ext/1472/Gamepad.o (strtol)
d:/program files - hdd/mplab compiler x32/bin/bin/../../lib/gcc/pic32mx/4.8.3/../../../../pic32mx/lib\libc.a(printf_cdfFnopsuxX.eo)
                              build/default/production/_ext/1472/GPS_I2C.o (_printf_cdfFnopsuxX)
d:/program files - hdd/mplab compiler x32/bin/bin/../../lib/gcc/pic32mx/4.8.3/../../../../pic32mx/lib\libc.a(printf_cdfFnopuxX.eo)
                              build/default/production/_ext/1472/MAG3110.o (_printf_cdfFnopuxX)
d:/program files - hdd/mplab compiler x32/bin/bin/../../lib/gcc/pic32mx/4.8.3/../../../../pic32mx/lib\libc.a(printf_cdnopsuxX.eo)
                              build/default/production/_ext/1472/main.o (_printf_cdnopsuxX)
d:/program files - hdd/mplab compiler x32/bin/bin/../../lib/gcc/pic32mx/4.8.3/../../../../pic32mx/lib\libc.a(printf_cdnopuxX.eo)
                              build/default/production/_ext/1472/uart2.o (_printf_cdnopuxX)
d:/program files - hdd/mplab compiler x32/bin/bin/../../lib/gcc/pic32mx/4.8.3/../../../../pic32mx/lib\libc.a(printf_s.eo)
                              build/default/production/_ext/1472/uart2.o (_printf_0)
d:/program files - hdd/mplab compiler x32/bin/bin/../../lib/gcc/pic32mx/4.8.3/../../../../pic32mx/lib\libc.a(sprintf_cdnopuxX.eo)
                              build/default/production/_ext/1472/main.o (_sprintf_cdnopuxX)
d:/program files - hdd/mplab compiler x32/bin/bin/../../lib/gcc/pic32mx/4.8.3/../../../../pic32mx/lib\libc.a(sscanf_cdfFnopuxX.eo)
                              build/default/production/_ext/1472/GPS_I2C.o (_sscanf_cdfFnopuxX)
d:/program files - hdd/mplab compiler x32/bin/bin/../../lib/gcc/pic32mx/4.8.3/../../../../pic32mx/lib\libc.a(_iob.o)
                              d:/program files - hdd/mplab compiler x32/bin/bin/../../lib/gcc/pic32mx/4.8.3/../../../../pic32mx/lib\libc.a(puts.o) (_iob)
d:/program files - hdd/mplab compiler x32/bin/bin/../../lib/gcc/pic32mx/4.8.3/../../../../pic32mx/lib\libc.a(_fputc_simple.o)
                              d:/program files - hdd/mplab compiler x32/bin/bin/../../lib/gcc/pic32mx/4.8.3/../../../../pic32mx/lib\libc.a(puts.o) (fputc)
d:/program files - hdd/mplab compiler x32/bin/bin/../../lib/gcc/pic32mx/4.8.3/../../../../pic32mx/lib\libc.a(ctypef.o)
                              d:/program files - hdd/mplab compiler x32/bin/bin/../../lib/gcc/pic32mx/4.8.3/../../../../pic32mx/lib\libc.a(strtol.o) (toupper)
d:/program files - hdd/mplab compiler x32/bin/bin/../../lib/gcc/pic32mx/4.8.3/../../../../pic32mx/lib\libc.a(errno.o)
                              d:/program files - hdd/mplab compiler x32/bin/bin/../../lib/gcc/pic32mx/4.8.3/../../../../pic32mx/lib\libc.a(strtol.o) (errno)
d:/program files - hdd/mplab compiler x32/bin/bin/../../lib/gcc/pic32mx/4.8.3/../../../../pic32mx/lib\libc.a(strncmp.o)
                              d:/program files - hdd/mplab compiler x32/bin/bin/../../lib/gcc/pic32mx/4.8.3/../../../../pic32mx/lib\libc.a(strstr.o) (strncmp)
d:/program files - hdd/mplab compiler x32/bin/bin/../../lib/gcc/pic32mx/4.8.3/../../../../pic32mx/lib\libc.a(doprnt_cdfFnopsuxX.eo)
                              d:/program files - hdd/mplab compiler x32/bin/bin/../../lib/gcc/pic32mx/4.8.3/../../../../pic32mx/lib\libc.a(printf_cdfFnopsuxX.eo) (_vfprintf_cdfFnopsuxX)
d:/program files - hdd/mplab compiler x32/bin/bin/../../lib/gcc/pic32mx/4.8.3/../../../../pic32mx/lib\libc.a(doprnt_cdfFnopuxX.eo)
                              d:/program files - hdd/mplab compiler x32/bin/bin/../../lib/gcc/pic32mx/4.8.3/../../../../pic32mx/lib\libc.a(printf_cdfFnopuxX.eo) (_vfprintf_cdfFnopuxX)
d:/program files - hdd/mplab compiler x32/bin/bin/../../lib/gcc/pic32mx/4.8.3/../../../../pic32mx/lib\libc.a(doprnt_cdnopsuxX.eo)
                              d:/program files - hdd/mplab compiler x32/bin/bin/../../lib/gcc/pic32mx/4.8.3/../../../../pic32mx/lib\libc.a(printf_cdnopsuxX.eo) (_vfprintf_cdnopsuxX)
d:/program files - hdd/mplab compiler x32/bin/bin/../../lib/gcc/pic32mx/4.8.3/../../../../pic32mx/lib\libc.a(doprnt_cdnopuxX.eo)
                              d:/program files - hdd/mplab compiler x32/bin/bin/../../lib/gcc/pic32mx/4.8.3/../../../../pic32mx/lib\libc.a(printf_cdnopuxX.eo) (_vfprintf_cdnopuxX)
d:/program files - hdd/mplab compiler x32/bin/bin/../../lib/gcc/pic32mx/4.8.3/../../../../pic32mx/lib\libc.a(doprnt_s.eo)
                              d:/program files - hdd/mplab compiler x32/bin/bin/../../lib/gcc/pic32mx/4.8.3/../../../../pic32mx/lib\libc.a(printf_s.eo) (_vfprintf_s)
d:/program files - hdd/mplab compiler x32/bin/bin/../../lib/gcc/pic32mx/4.8.3/../../../../pic32mx/lib\libc.a(doscan_cdfFnopuxX.eo)
                              d:/program files - hdd/mplab compiler x32/bin/bin/../../lib/gcc/pic32mx/4.8.3/../../../../pic32mx/lib\libc.a(sscanf_cdfFnopuxX.eo) (_vfscanf_cdfFnopuxX)
d:/program files - hdd/mplab compiler x32/bin/bin/../../lib/gcc/pic32mx/4.8.3/../../../../pic32mx/lib\libc.a(_flsbuf_simple.o)
                              d:/program files - hdd/mplab compiler x32/bin/bin/../../lib/gcc/pic32mx/4.8.3/../../../../pic32mx/lib\libc.a(_fputc_simple.o) (_flsbuf)
d:/program files - hdd/mplab compiler x32/bin/bin/../../lib/gcc/pic32mx/4.8.3/../../../../pic32mx/lib\libc.a(fgetc.o)
                              d:/program files - hdd/mplab compiler x32/bin/bin/../../lib/gcc/pic32mx/4.8.3/../../../../pic32mx/lib\libc.a(doscan_cdfFnopuxX.eo) (fgetc)
d:/program files - hdd/mplab compiler x32/bin/bin/../../lib/gcc/pic32mx/4.8.3/../../../../pic32mx/lib\libc.a(atoi.o)
                              d:/program files - hdd/mplab compiler x32/bin/bin/../../lib/gcc/pic32mx/4.8.3/../../../../pic32mx/lib\libc.a(doscan_cdfFnopuxX.eo) (atoi)
d:/program files - hdd/mplab compiler x32/bin/bin/../../lib/gcc/pic32mx/4.8.3/../../../../pic32mx/lib\libc.a(ldpowers.o)
                              d:/program files - hdd/mplab compiler x32/bin/bin/../../lib/gcc/pic32mx/4.8.3/../../../../pic32mx/lib\libc.a(doprnt_cdfFnopsuxX.eo) (_npowers_)
d:/program files - hdd/mplab compiler x32/bin/bin/../../lib/gcc/pic32mx/4.8.3/../../../../pic32mx/lib\libc.a(strtod.o)
                              d:/program files - hdd/mplab compiler x32/bin/bin/../../lib/gcc/pic32mx/4.8.3/../../../../pic32mx/lib\libc.a(doscan_cdfFnopuxX.eo) (strtod)
d:/program files - hdd/mplab compiler x32/bin/bin/../../lib/gcc/pic32mx/4.8.3/../../../../pic32mx/lib\libc.a(strtof.o)
                              d:/program files - hdd/mplab compiler x32/bin/bin/../../lib/gcc/pic32mx/4.8.3/../../../../pic32mx/lib\libc.a(doscan_cdfFnopuxX.eo) (strtof)
d:/program files - hdd/mplab compiler x32/bin/bin/../../lib/gcc/pic32mx/4.8.3/../../../../pic32mx/lib\libc.a(ungetc.o)
                              d:/program files - hdd/mplab compiler x32/bin/bin/../../lib/gcc/pic32mx/4.8.3/../../../../pic32mx/lib\libc.a(doscan_cdfFnopuxX.eo) (ungetc)
d:/program files - hdd/mplab compiler x32/bin/bin/../../lib/gcc/pic32mx/4.8.3/../../../../pic32mx/lib\libc.a(filbuf.o)
                              d:/program files - hdd/mplab compiler x32/bin/bin/../../lib/gcc/pic32mx/4.8.3/../../../../pic32mx/lib\libc.a(fgetc.o) (_filbuf)
d:/program files - hdd/mplab compiler x32/bin/bin/../../lib/gcc/pic32mx/4.8.3/../../../../pic32mx/lib\libc.a(fflush.o)
                              d:/program files - hdd/mplab compiler x32/bin/bin/../../lib/gcc/pic32mx/4.8.3/../../../../pic32mx/lib\libc.a(filbuf.o) (fflush)
d:/program files - hdd/mplab compiler x32/bin/bin/../../lib/gcc/pic32mx/4.8.3/../../../../pic32mx/lib\libm.a(dpfrexp.o)
                              d:/program files - hdd/mplab compiler x32/bin/bin/../../lib/gcc/pic32mx/4.8.3/../../../../pic32mx/lib\libc.a(doprnt_cdfFnopsuxX.eo) (frexpl)
d:/program files - hdd/mplab compiler x32/bin/bin/../../lib/gcc/pic32mx/4.8.3/../../../../pic32mx/lib\libm.a(dp32div.o)
                              d:/program files - hdd/mplab compiler x32/bin/bin/../../lib/gcc/pic32mx/4.8.3/../../../../pic32mx/lib\libc.a(doprnt_cdfFnopsuxX.eo) (dpdiv)
d:/program files - hdd/mplab compiler x32/bin/bin/../../lib/gcc/pic32mx/4.8.3/../../../../pic32mx/lib\libm.a(dp32mul.o)
                              d:/program files - hdd/mplab compiler x32/bin/bin/../../lib/gcc/pic32mx/4.8.3/../../../../pic32mx/lib\libc.a(doprnt_cdfFnopsuxX.eo) (dpmul)
d:/program files - hdd/mplab compiler x32/bin/bin/../../lib/gcc/pic32mx/4.8.3/../../../../pic32mx/lib\libm.a(dp32subadd.o)
                              d:/program files - hdd/mplab compiler x32/bin/bin/../../lib/gcc/pic32mx/4.8.3/../../../../pic32mx/lib\libc.a(doprnt_cdfFnopsuxX.eo) (dpsub)
d:/program files - hdd/mplab compiler x32/bin/bin/../../lib/gcc/pic32mx/4.8.3/../../../../pic32mx/lib\libm.a(dpcmp.o)
                              d:/program files - hdd/mplab compiler x32/bin/bin/../../lib/gcc/pic32mx/4.8.3/../../../../pic32mx/lib\libc.a(doprnt_cdfFnopsuxX.eo) (dpcmp)
d:/program files - hdd/mplab compiler x32/bin/bin/../../lib/gcc/pic32mx/4.8.3/../../../../pic32mx/lib\libm.a(dptofp.o)
                              d:/program files - hdd/mplab compiler x32/bin/bin/../../lib/gcc/pic32mx/4.8.3/../../../../pic32mx/lib\libc.a(strtod.o) (dptofp)
d:/program files - hdd/mplab compiler x32/bin/bin/../../lib/gcc/pic32mx/4.8.3/../../../../pic32mx/lib\libm.a(fp32div.o)
                              build/default/production/_ext/1472/ADC_TEMP.o (fpdiv)
d:/program files - hdd/mplab compiler x32/bin/bin/../../lib/gcc/pic32mx/4.8.3/../../../../pic32mx/lib\libm.a(fp32mul.o)
                              build/default/production/_ext/1472/ADC_TEMP.o (fpmul)
d:/program files - hdd/mplab compiler x32/bin/bin/../../lib/gcc/pic32mx/4.8.3/../../../../pic32mx/lib\libm.a(fp32subadd.o)
                              build/default/production/_ext/1472/main.o (fpsub)
d:/program files - hdd/mplab compiler x32/bin/bin/../../lib/gcc/pic32mx/4.8.3/../../../../pic32mx/lib\libm.a(fpcmp.o)
                              build/default/production/_ext/1472/main.o (fpcmp)
d:/program files - hdd/mplab compiler x32/bin/bin/../../lib/gcc/pic32mx/4.8.3/../../../../pic32mx/lib\libm.a(fptodp.o)
                              d:/program files - hdd/mplab compiler x32/bin/bin/../../lib/gcc/pic32mx/4.8.3/../../../../pic32mx/lib\libc.a(doprnt_cdfFnopsuxX.eo) (fptodp)
d:/program files - hdd/mplab compiler x32/bin/bin/../../lib/gcc/pic32mx/4.8.3/../../../../pic32mx/lib\libm.a(fptoli.o)
                              build/default/production/_ext/1472/ADC_TEMP.o (fptosi)
d:/program files - hdd/mplab compiler x32/bin/bin/../../lib/gcc/pic32mx/4.8.3/../../../../pic32mx/lib\libm.a(sitofp.o)
                              build/default/production/_ext/1472/ADC_TEMP.o (sitofp)
d:/program files - hdd/mplab compiler x32/bin/bin/../../lib/gcc/pic32mx/4.8.3/../../../../pic32mx/lib\libm.a(w_atan2f.o)
                              build/default/production/_ext/1472/MAG3110.o (atan2f)
d:/program files - hdd/mplab compiler x32/bin/bin/../../lib/gcc/pic32mx/4.8.3/../../../../pic32mx/lib\libm.a(__strtod.o)
                              d:/program files - hdd/mplab compiler x32/bin/bin/../../lib/gcc/pic32mx/4.8.3/../../../../pic32mx/lib\libc.a(strtod.o) (__strtod)
d:/program files - hdd/mplab compiler x32/bin/bin/../../lib/gcc/pic32mx/4.8.3/../../../../pic32mx/lib\libm.a(__strtof.o)
                              d:/program files - hdd/mplab compiler x32/bin/bin/../../lib/gcc/pic32mx/4.8.3/../../../../pic32mx/lib\libc.a(strtof.o) (__strtof)
d:/program files - hdd/mplab compiler x32/bin/bin/../../lib/gcc/pic32mx/4.8.3/../../../../pic32mx/lib\libm.a(support.o)
                              d:/program files - hdd/mplab compiler x32/bin/bin/../../lib/gcc/pic32mx/4.8.3/../../../../pic32mx/lib\libm.a(w_atan2f.o) (finitel)
d:/program files - hdd/mplab compiler x32/bin/bin/../../lib/gcc/pic32mx/4.8.3/../../../../pic32mx/lib\libm.a(dpldexp.o)
                              d:/program files - hdd/mplab compiler x32/bin/bin/../../lib/gcc/pic32mx/4.8.3/../../../../pic32mx/lib\libm.a(support.o) (ldexp)
d:/program files - hdd/mplab compiler x32/bin/bin/../../lib/gcc/pic32mx/4.8.3/../../../../pic32mx/lib\libm.a(fpatan2.o)
                              d:/program files - hdd/mplab compiler x32/bin/bin/../../lib/gcc/pic32mx/4.8.3/../../../../pic32mx/lib\libm.a(w_atan2f.o) (__mchp_atan2f)
d:/program files - hdd/mplab compiler x32/bin/bin/../../lib/gcc/pic32mx/4.8.3/../../../../pic32mx/lib\libm.a(fpexatan.o)
                              d:/program files - hdd/mplab compiler x32/bin/bin/../../lib/gcc/pic32mx/4.8.3/../../../../pic32mx/lib\libm.a(fpatan2.o) (fpexatan)
d:/program files - hdd/mplab compiler x32/bin/bin/../../lib/gcc/pic32mx/4.8.3/../../../../pic32mx/lib\libm.a(fpexsqrt32.o)
                              d:/program files - hdd/mplab compiler x32/bin/bin/../../lib/gcc/pic32mx/4.8.3/../../../../pic32mx/lib\libm.a(fpexatan.o) (fpexsqrt)
d:/program files - hdd/mplab compiler x32/bin/bin/../../lib/gcc/pic32mx/4.8.3/../../../../pic32mx/lib\libm.a(litodp.o)
                              d:/program files - hdd/mplab compiler x32/bin/bin/../../lib/gcc/pic32mx/4.8.3/../../../../pic32mx/lib\libm.a(support.o) (litodp)
d:/program files - hdd/mplab compiler x32/bin/bin/../../lib/gcc/pic32mx/4.8.3/../../../../pic32mx/lib\libm.a(negdf2.o)
                              d:/program files - hdd/mplab compiler x32/bin/bin/../../lib/gcc/pic32mx/4.8.3/../../../../pic32mx/lib\libm.a(__strtod.o) (__negdf2)
d:/program files - hdd/mplab compiler x32/bin/bin/../../lib/gcc/pic32mx/4.8.3/../../../../pic32mx/lib\libm.a(negsf2.o)
                              d:/program files - hdd/mplab compiler x32/bin/bin/../../lib/gcc/pic32mx/4.8.3/../../../../pic32mx/lib\libm.a(__strtof.o) (__negsf2)
d:/program files - hdd/mplab compiler x32/bin/bin/../../lib/gcc/pic32mx/4.8.3/../../../../pic32mx/lib\libe.a(_fixunsdfdi.o)
                              d:/program files - hdd/mplab compiler x32/bin/bin/../../lib/gcc/pic32mx/4.8.3/../../../../pic32mx/lib\libc.a(doprnt_cdfFnopsuxX.eo) (__fixunsdfdi)
d:/program files - hdd/mplab compiler x32/bin/bin/../../lib/gcc/pic32mx/4.8.3/../../../../pic32mx/lib\libe.a(_orderdf2.o)
                              d:/program files - hdd/mplab compiler x32/bin/bin/../../lib/gcc/pic32mx/4.8.3/../../../../pic32mx/lib\libe.a(_fixunsdfdi.o) (__orderdf2)
d:/program files - hdd/mplab compiler x32/bin/bin/../../lib/gcc/pic32mx/4.8.3/../../../../pic32mx/lib\libe.a(_ldexp.o)
                              d:/program files - hdd/mplab compiler x32/bin/bin/../../lib/gcc/pic32mx/4.8.3/../../../../pic32mx/lib\libm.a(__strtod.o) (__ldexp)
d:/program files - hdd/mplab compiler x32/bin/bin/../../lib/gcc/pic32mx/4.8.3/../../../../pic32mx/lib\libe.a(_ldexpf.o)
                              d:/program files - hdd/mplab compiler x32/bin/bin/../../lib/gcc/pic32mx/4.8.3/../../../../pic32mx/lib\libm.a(__strtof.o) (__ldexpf)
d:/program files - hdd/mplab compiler x32/bin/bin/../../lib/gcc/pic32mx/4.8.3/../../../../pic32mx/lib\libe.a(_fixdfdi.o)
                              d:/program files - hdd/mplab compiler x32/bin/bin/../../lib/gcc/pic32mx/4.8.3/../../../../pic32mx/lib\libe.a(_fixunsdfdi.o) (__fixdfdi)
d:/program files - hdd/mplab compiler x32/bin/bin/../../lib/gcc/pic32mx/4.8.3\libgcc.a(_lshrdi3.o)
                              d:/program files - hdd/mplab compiler x32/bin/bin/../../lib/gcc/pic32mx/4.8.3/../../../../pic32mx/lib\libe.a(_ldexp.o) (__lshrdi3)
d:/program files - hdd/mplab compiler x32/bin/bin/../../lib/gcc/pic32mx/4.8.3\libgcc.a(_ashldi3.o)
                              d:/program files - hdd/mplab compiler x32/bin/bin/../../lib/gcc/pic32mx/4.8.3/../../../../pic32mx/lib\libe.a(_ldexp.o) (__ashldi3)
d:/program files - hdd/mplab compiler x32/bin/bin/../../lib/gcc/pic32mx/4.8.3\libgcc.a(_floatundidf.o)
                              d:/program files - hdd/mplab compiler x32/bin/bin/../../lib/gcc/pic32mx/4.8.3/../../../../pic32mx/lib\libc.a(doprnt_cdfFnopsuxX.eo) (__floatundidf)
d:/program files - hdd/mplab compiler x32/bin/bin/../../lib/gcc/pic32mx/4.8.3\libgcc.a(_udivdi3.o)
                              d:/program files - hdd/mplab compiler x32/bin/bin/../../lib/gcc/pic32mx/4.8.3/../../../../pic32mx/lib\libc.a(doprnt_cdfFnopsuxX.eo) (__udivdi3)
d:/program files - hdd/mplab compiler x32/bin/bin/../../lib/gcc/pic32mx/4.8.3\libgcc.a(_umoddi3.o)
                              d:/program files - hdd/mplab compiler x32/bin/bin/../../lib/gcc/pic32mx/4.8.3/../../../../pic32mx/lib\libc.a(doprnt_cdfFnopsuxX.eo) (__umoddi3)
d:/program files - hdd/mplab compiler x32/bin/bin/../../lib/gcc/pic32mx/4.8.3\libgcc.a(floatunsidf.o)
                              d:/program files - hdd/mplab compiler x32/bin/bin/../../lib/gcc/pic32mx/4.8.3\libgcc.a(_floatundidf.o) (__floatunsidf)
d:/program files - hdd/mplab compiler x32/bin/bin/../../lib/gcc/pic32mx/4.8.3/../../../../pic32mx/lib\libpic32.a(read.o)
                              d:/program files - hdd/mplab compiler x32/bin/bin/../../lib/gcc/pic32mx/4.8.3/../../../../pic32mx/lib\libc.a(filbuf.o) (read)
d:/program files - hdd/mplab compiler x32/bin/bin/../../lib/gcc/pic32mx/4.8.3/../../../../pic32mx/lib\libpic32.a(write.o)
                              d:/program files - hdd/mplab compiler x32/bin/bin/../../lib/gcc/pic32mx/4.8.3/../../../../pic32mx/lib\libc.a(_fputc_simple.o) (write)
d:/program files - hdd/mplab compiler x32/bin/bin/../../lib/gcc/pic32mx/4.8.3/../../../../pic32mx/lib\libpic32.a(xc32_uart.o)
                              d:/program files - hdd/mplab compiler x32/bin/bin/../../lib/gcc/pic32mx/4.8.3/../../../../pic32mx/lib\libpic32.a(read.o) (__XC_UART)

Allocating common symbols
Common symbol       size              file

rc                  0x10              build/default/production/_ext/1472/RC.o
gps                 0x2c              build/default/production/_ext/1472/main.o
x                   0x2               build/default/production/_ext/1472/MAG3110.o
deg                 0x4               build/default/production/_ext/1472/Stepper.o
dmaBuff             0x101             build/default/production/_ext/1472/DMA_UART2.o
dmaBuff1            0x101             build/default/production/_ext/1472/DMA_UART2.o
dmaBuff2            0x101             build/default/production/_ext/1472/DMA_UART2.o
calibrated          0x4               build/default/production/_ext/1472/main.o
z                   0x2               build/default/production/_ext/1472/MAG3110.o
angle               0x4               build/default/production/_ext/1472/Stepper.o
smPos               0x4               build/default/production/_ext/1472/Stepper.o
y                   0x2               build/default/production/_ext/1472/MAG3110.o
rc_set              0x10              build/default/production/_ext/1472/RC.o
error               0x4               build/default/production/_ext/1472/main.o

Microchip PIC32 Memory-Usage Report

kseg0 Program-Memory Usage
section                    address  length [bytes]      (dec)  Description
-------                 ----------  -------------------------  -----------
.text._vfprintf_cdfFnop 0x9d000000         0x1554        5460   
.text                   0x9d001554         0x20e4        8420  App's exec code 
.text                   0x9d003638          0xe70        3696  App's exec code 
.text._vfscanf_cdfFnopu 0x9d0044a8          0xb98        2968   
.text                   0x9d005040         0x12e0        4832  App's exec code 
.text                   0x9d006320          0xfe4        4068  App's exec code 
.text                   0x9d007304          0xe4c        3660  App's exec code 
.text                   0x9d008150          0x670        1648  App's exec code 
.rodata                 0x9d0087c0          0x5dc        1500  Read-only const 
.text                   0x9d008d9c          0x5d0        1488  App's exec code 
.text.dp32mul           0x9d00936c          0x4b8        1208   
.text                   0x9d009824          0x478        1144  App's exec code 
.text.dreml             0x9d009c9c          0x470        1136   
.text                   0x9d00a10c          0x8bc        2236  App's exec code 
.text.dp32subadd        0x9d00a9c8          0x430        1072   
.text.__strtod          0x9d00adf8          0x3d0         976   
.dinit                  0x9d00b1c8          0x3a0         928   
.text.__strtof          0x9d00b568          0x358         856   
.text.libm              0x9d00b8c0          0x350         848   
.text.dp32mul           0x9d00bc10          0x32c         812   
.text.atan2f            0x9d00bf3c          0x31c         796   
.text                   0x9d00c258          0x614        1556  App's exec code 
.text                   0x9d00c86c          0x2b8         696  App's exec code 
.text.fpsubadd          0x9d00cb24          0x278         632   
.text                   0x9d00cd9c          0x260         608  App's exec code 
.text.libm              0x9d00cffc          0x248         584   
.text.scale             0x9d00d244          0x23c         572   
.text.fp32div           0x9d00d480          0x230         560   
.text.strtoul           0x9d00d6b0          0x1d4         468   
.text.fp32mul           0x9d00d884          0x1bc         444   
.text.__ldexp           0x9d00da40          0x1a8         424   
.text                   0x9d00dbe8          0x1a0         416  App's exec code 
.text.strtol            0x9d00dd88          0x19c         412   
.text._filbuf           0x9d00df24          0x188         392   
.rodata                 0x9d00e0ac          0x170         368  Read-only const 
.text.libm              0x9d00e21c          0x16c         364   
.text                   0x9d00e388          0x168         360  App's exec code 
.rodata                 0x9d00e4f0          0x160         352  Read-only const 
.text.read              0x9d00e650          0x158         344   
.text.fputc             0x9d00e7a8          0x144         324   
.text._flsbuf           0x9d00e8ec          0x12c         300   
.text.dpcmp             0x9d00ea18          0x12c         300   
.text.logbl             0x9d00eb44          0x124         292   
.rodata                 0x9d00ec68          0x104         260  Read-only const 
.text.fgetc             0x9d00ed6c          0x104         260   
.text.__ldexpf          0x9d00ee70          0x104         260   
.rodata                 0x9d00ef74          0x200         512  Read-only const 
.text.dptofp            0x9d00f174          0x100         256   
.text.libm.fpexsqrt     0x9d00f274           0xfc         252   
.text.DmaChnOpen        0x9d00f370           0xf0         240   
.rodata                 0x9d00f460           0xf0         240  Read-only const 
.text.__fixdfdi         0x9d00f550           0xe8         232   
.text.general_exception 0x9d00f638           0xdc         220   
.text                   0x9d00f714           0xd8         216  App's exec code 
.rodata                 0x9d00f7ec           0xd4         212  Read-only const 
.text.fptodp            0x9d00f8c0           0xac         172   
.text.range             0x9d00f96c           0xa8         168   
.text.atoi              0x9d00fa14           0xa8         168   
.text.libm              0x9d00fabc           0xa8         168   
.text.fflush            0x9d00fb64           0xa0         160   
.text.DmaChnSetTxfer    0x9d00fc04           0x9c         156   
.text.fpcmp             0x9d00fca0           0x9c         156   
.text.write             0x9d00fd3c           0x9c         156   
.text.strstr            0x9d00fdd8           0x90         144   
.text.__orderdf2        0x9d00fe68           0x8c         140   
.text.UARTEnable        0x9d00fef4           0x80         128   
.text.fptoli            0x9d00ff74           0x80         128   
.text.__fixunsdfdi      0x9d00fff4           0x80         128   
.text.litodp            0x9d010074           0x78         120   
.text.ungetc            0x9d0100ec           0x74         116   
.text.strncmp           0x9d010160           0x70         112   
.text._sprintf_cdnopuxX 0x9d0101d0           0x68         104   
.text                   0x9d010238           0x64         100  App's exec code 
.text.fputs             0x9d01029c           0x60          96   
.text.wspace            0x9d0102fc           0x60          96   
.text.sitofp            0x9d01035c           0x60          96   
.text.copysign          0x9d0103bc           0x60          96   
.text.copysignf         0x9d01041c           0x60          96   
.text.UARTSetDataRate   0x9d01047c           0x5c          92   
.text.main_entry        0x9d0104d8           0x54          84   
.rodata                 0x9d01052c           0x54          84  Read-only const 
.text.I2CBusIsIdle      0x9d010580           0x54          84   
.text._sscanf_cdfFnopux 0x9d0105d4           0x54          84   
.text.I2CAcknowledgeByt 0x9d010628           0x4c          76   
.text.I2CSetFrequency   0x9d010674           0x48          72   
.text._bootstrap_except 0x9d0106bc           0x48          72   
.text._general_exceptio 0x9d010704           0x48          72   
.vector_default         0x9d01074c           0x48          72   
.rodata                 0x9d010794           0x48          72  Read-only const 
.text                   0x9d0107dc           0x44          68  App's exec code 
.text.I2CGetStatus      0x9d010820           0x44          68   
.text.puts              0x9d010864           0x44          68   
.text                   0x9d0108a8           0x44          68  App's exec code 
.text.INTSetVectorPrior 0x9d0108ec           0x40          64   
.text.INTSetVectorSubPr 0x9d01092c           0x40          64   
.text.PORTSetPinsDigita 0x9d01096c           0x40          64   
.text.PORTSetPinsDigita 0x9d0109ac           0x40          64   
.text.UARTGetDataRate   0x9d0109ec           0x40          64   
.text._printf_cdfFnopsu 0x9d010a2c           0x40          64   
.text                   0x9d010a6c           0x80         128  App's exec code 
.text.INTEnable         0x9d010aec           0x3c          60   
.text.UARTConfigure     0x9d010b28           0x3c          60   
.text.UARTSetAddress    0x9d010b64           0x3c          60   
.rodata                 0x9d010ba0           0x34          52  Read-only const 
.text.UARTWatchForAddre 0x9d010bd4           0x34          52   
.text.I2CReceiverEnable 0x9d010c08           0x34          52   
.text.copysignl         0x9d010c3c           0x34          52   
.text.finite            0x9d010c70           0x34          52   
.text.finitef           0x9d010ca4           0x34          52   
.text.INTConfigureSyste 0x9d010cd8           0x30          48   
.text.INTGetVectorPrior 0x9d010d08           0x30          48   
.text.INTGetVectorSubPr 0x9d010d38           0x30          48   
.text.DmaChnWriteEventC 0x9d010d68           0x30          48   
.text.I2CRepeatStart    0x9d010d98           0x30          48   
.text.I2CSendByte       0x9d010dc8           0x30          48   
.text.I2CStart          0x9d010df8           0x30          48   
.text.INTClearFlag      0x9d010e28           0x2c          44   
.text.INTSetFlag        0x9d010e54           0x2c          44   
.text.INTGetFlag        0x9d010e80           0x2c          44   
.text.INTGetEnable      0x9d010eac           0x2c          44   
.text.strchr            0x9d010ed8           0x2c          44   
.text.DmaChnSetEvEnable 0x9d010f04           0x28          40   
.text.DmaChnEnable      0x9d010f2c           0x28          40   
.text.UARTSetFifoMode   0x9d010f54           0x28          40   
.text.UARTSetLineContro 0x9d010f7c           0x28          40   
.text.I2CEnable         0x9d010fa4           0x28          40   
.text.strtod            0x9d010fcc           0x28          40   
.rodata                 0x9d010ff4            0x4           4  Read-only const 
.rodata                 0x9d010ff8           0x28          40  Read-only const 
.text.logb              0x9d011020           0x28          40   
.text.logbf             0x9d011048           0x28          40   
.text.drem              0x9d011070           0x28          40   
.text.dremf             0x9d011098           0x28          40   
.text.DmaChnGetEvFlags  0x9d0110c0           0x24          36   
.text.DmaChnSetMatchPat 0x9d0110e4           0x24          36   
.text.I2CAcknowledgeHas 0x9d011108           0x24          36   
.text.I2CByteWasAcknowl 0x9d01112c           0x24          36   
.text.I2CStop           0x9d011150           0x24          36   
.text.I2CTransmissionHa 0x9d011174           0x24          36   
.text.I2CTransmitterIsR 0x9d011198           0x24          36   
.text.tolower           0x9d0111bc           0x24          36   
.text.toupper           0x9d0111e0           0x24          36   
.rodata                 0x9d011204           0x40          64  Read-only const 
.text.I2CGetByte        0x9d011244           0x20          32   
.text.I2CReceivedDataIs 0x9d011264           0x20          32   
.rodata                 0x9d011288           0x3c          60  Read-only const 
.rodata                 0x9d0112c4           0x1c          28  Read-only const 
.text.INTRestoreInterru 0x9d0112e0           0x1c          28   
.text._dstrtod          0x9d0112fc           0x1c          28   
.text.strtof            0x9d011318           0x1c          28   
.text.strtodf           0x9d011334           0x1c          28   
.text.finitel           0x9d011350           0x1c          28   
.text.negdf2            0x9d01136c           0x1c          28   
.text.CheKseg0CacheOff  0x9d011388           0x18          24   
.text.CheKseg0CacheOn   0x9d0113a0           0x18          24   
.text                   0x9d0113b8           0x18          24  App's exec code 
.text.isalnum           0x9d0113d0           0x18          24   
.text.isalpha           0x9d0113e8           0x18          24   
.text.iscntrl           0x9d011400           0x18          24   
.text.isdigit           0x9d011418           0x18          24   
.text.isgraph           0x9d011430           0x18          24   
.text.islower           0x9d011448           0x18          24   
.text.isprint           0x9d011460           0x18          24   
.text.ispunct           0x9d011478           0x18          24   
.text.isspace           0x9d011490           0x18          24   
.text.isupper           0x9d0114a8           0x18          24   
.text.isxdigit          0x9d0114c0           0x18          24   
.rodata                 0x9d0114d8           0x2c          44  Read-only const 
.text.negsf2            0x9d011504           0x14          20   
.rodata                 0x9d011518           0x14          20  Read-only const 
.text.ReadCoreTimer     0x9d01152c            0x8           8   
.text.INTEnableInterrup 0x9d011534            0x8           8   
.text.INTDisableInterru 0x9d01153c            0x8           8   
.rodata                 0x9d011544            0x8           8  Read-only const 
.text._on_reset         0x9d01154c            0x8           8   
.text._on_bootstrap     0x9d011554            0x8           8   
.text.isascii           0x9d01155c            0x8           8   
.text.toascii           0x9d011564            0x8           8   
.text._tolower          0x9d01156c            0x8           8   
.text._toupper          0x9d011574            0x8           8   
.rodata                 0x9d011580           0x10          16  Read-only const 
      Total kseg0_program_mem used  :     0x11588       71048  13.6% of 0x80000

kseg0 Boot-Memory Usage
section                    address  length [bytes]      (dec)  Description
-------                 ----------  -------------------------  -----------
         Total kseg0_boot_mem used  :           0           0  <1% of 0x970

Exception-Memory Usage 
section                    address  length [bytes]      (dec)  Description
-------                 ----------  -------------------------  -----------
.app_excpt              0x9fc01180           0x10          16  General-Exception 
.vector_0               0x9fc01200            0x8           8  Interrupt Vector 0 
.vector_1               0x9fc01220            0x8           8  Interrupt Vector 1 
.vector_2               0x9fc01240            0x8           8  Interrupt Vector 2 
.vector_3               0x9fc01260            0x8           8  Interrupt Vector 3 
.vector_4               0x9fc01280            0x8           8  Interrupt Vector 4 
.vector_5               0x9fc012a0            0x8           8  Interrupt Vector 5 
.vector_6               0x9fc012c0            0x8           8  Interrupt Vector 6 
.vector_7               0x9fc012e0            0x8           8  Interrupt Vector 7 
.vector_8               0x9fc01300            0x8           8  Interrupt Vector 8 
.vector_9               0x9fc01320            0x8           8  Interrupt Vector 9 
.vector_10              0x9fc01340            0x8           8  Interrupt Vector 10 
.vector_11              0x9fc01360            0x8           8  Interrupt Vector 11 
.vector_12              0x9fc01380            0x8           8  Interrupt Vector 12 
.vector_13              0x9fc013a0            0x8           8  Interrupt Vector 13 
.vector_14              0x9fc013c0            0x8           8  Interrupt Vector 14 
.vector_15              0x9fc013e0            0x8           8  Interrupt Vector 15 
.vector_16              0x9fc01400            0x8           8  Interrupt Vector 16 
.vector_17              0x9fc01420            0x8           8  Interrupt Vector 17 
.vector_18              0x9fc01440            0x8           8  Interrupt Vector 18 
.vector_19              0x9fc01460            0x8           8  Interrupt Vector 19 
.vector_20              0x9fc01480            0x8           8  Interrupt Vector 20 
.vector_21              0x9fc014a0            0x8           8  Interrupt Vector 21 
.vector_22              0x9fc014c0            0x8           8  Interrupt Vector 22 
.vector_23              0x9fc014e0            0x8           8  Interrupt Vector 23 
.vector_24              0x9fc01500            0x8           8  Interrupt Vector 24 
.vector_25              0x9fc01520            0x8           8  Interrupt Vector 25 
.vector_26              0x9fc01540            0x8           8  Interrupt Vector 26 
.vector_27              0x9fc01560            0x8           8  Interrupt Vector 27 
.vector_28              0x9fc01580            0x8           8  Interrupt Vector 28 
.vector_29              0x9fc015a0            0x8           8  Interrupt Vector 29 
.vector_30              0x9fc015c0            0x8           8  Interrupt Vector 30 
.vector_31              0x9fc015e0            0x8           8  Interrupt Vector 31 
.vector_32              0x9fc01600            0x8           8  Interrupt Vector 32 
.vector_33              0x9fc01620            0x8           8  Interrupt Vector 33 
.vector_34              0x9fc01640            0x8           8  Interrupt Vector 34 
.vector_35              0x9fc01660            0x8           8  Interrupt Vector 35 
.vector_36              0x9fc01680            0x8           8  Interrupt Vector 36 
.vector_37              0x9fc016a0            0x8           8  Interrupt Vector 37 
.vector_38              0x9fc016c0            0x8           8  Interrupt Vector 38 
.vector_39              0x9fc016e0            0x8           8  Interrupt Vector 39 
.vector_40              0x9fc01700            0x8           8  Interrupt Vector 40 
.vector_41              0x9fc01720            0x8           8  Interrupt Vector 41 
.vector_42              0x9fc01740            0x8           8  Interrupt Vector 42 
.vector_43              0x9fc01760            0x8           8  Interrupt Vector 43 
.vector_44              0x9fc01780            0x8           8  Interrupt Vector 44 
.vector_45              0x9fc017a0            0x8           8  Interrupt Vector 45 
          Total exception_mem used  :       0x180         384  9.4% of 0x1000

kseg1 Boot-Memory Usage
section                    address  length [bytes]      (dec)  Description
-------                 ----------  -------------------------  -----------
.reset                  0xbfc00000          0x208         520  Reset handler 
.bev_excpt              0xbfc00380           0x10          16  BEV-Exception 
         Total kseg1_boot_mem used  :       0x218         536  45.9% of 0x490
        --------------------------------------------------------------------------
         Total Program Memory used  :     0x11920       71968  13.5% of 0x81e00
        --------------------------------------------------------------------------


kseg1 Data-Memory Usage
section                    address  length [bytes]      (dec)  Description
-------                 ----------  -------------------------  -----------
.sdata                  0xa0000000           0x28          40  Small init data 
.sbss                   0xa0000028           0xb8         184  Small uninit data 
.bss                    0xa00000e0          0x358         856  Uninitialized data 
.bss                    0xa0000438          0x348         840  Uninitialized data 
.bss                    0xa0000780          0x100         256  Uninitialized data 
.data                   0xa0000880          0x1a4         420  Initialized data 
.bss                    0xa0000a24           0x44          68  Uninitialized data 
.data                   0xa0000a68           0x40          64  Initialized data 
.bss.errno              0xa0000aa8            0x4           4   
.bss                    0xa0000aac            0x4           4  Uninitialized data 
         Total kseg1_data_mem used  :       0xab0        2736  2.1% of 0x20000
        --------------------------------------------------------------------------
            Total Data Memory used  :       0xab0        2736  2.1% of 0x20000
        --------------------------------------------------------------------------


Dynamic Data-Memory Reservation
section                    address  length [bytes]      (dec)  Description
-------                 ----------  -------------------------  -----------
heap                    0xa0000ab8          0x800        2048  Reserved for heap 
stack                   0xa00012d0        0x1ed28      126248  Reserved for stack 

        --------------------------------------------------------------------------

Discarded input sections

 .reginfo       0x00000000       0x18 d:/program files - hdd/mplab compiler x32/bin/bin/../../lib/gcc/pic32mx/4.8.3/../../../../pic32mx/lib\debug-exception-return.o
 .reginfo       0x00000000       0x18 build/default/production/_ext/1472/LCDlib.o
 .reginfo       0x00000000       0x18 build/default/production/_ext/1472/hardware.o
 .reginfo       0x00000000       0x18 build/default/production/_ext/1472/led7.o
 .reginfo       0x00000000       0x18 build/default/production/_ext/1472/main.o
 .reginfo       0x00000000       0x18 build/default/production/_ext/1472/swDelay.o
 .reginfo       0x00000000       0x18 build/default/production/_ext/1472/uart2.o
 .reginfo       0x00000000       0x18 build/default/production/_ext/1472/uart4.o
 .reginfo       0x00000000       0x18 build/default/production/_ext/1472/RC.o
 .reginfo       0x00000000       0x18 build/default/production/_ext/1472/Pot.o
 .reginfo       0x00000000       0x18 build/default/production/_ext/1472/GPS_I2C.o
 .reginfo       0x00000000       0x18 build/default/production/_ext/1472/i2c_lib.o
 .reginfo       0x00000000       0x18 build/default/production/_ext/1472/Gamepad.o
 .reginfo       0x00000000       0x18 build/default/production/_ext/1472/ADC_TEMP.o
 .reginfo       0x00000000       0x18 build/default/production/_ext/1472/CycleData.o
 .reginfo       0x00000000       0x18 build/default/production/_ext/1472/Notice.o
 .reginfo       0x00000000       0x18 build/default/production/_ext/1472/DMA_UART2.o
 .reginfo       0x00000000       0x18 build/default/production/_ext/1472/MAG3110.o
 .reginfo       0x00000000       0x18 build/default/production/_ext/1472/Stepper.o
 .reginfo       0x00000000       0x18 d:/program files - hdd/mplab compiler x32/bin/bin/../../lib/gcc/pic32mx/4.8.3/../../../../pic32mx/lib/./proc/32MX370F512L\default_isr_vectors.o
 .discard       0x00000000       0xb8 d:/program files - hdd/mplab compiler x32/bin/bin/../../lib/gcc/pic32mx/4.8.3/../../../../pic32mx/lib/./proc/32MX370F512L\default_isr_vectors.o
 .reginfo       0x00000000       0x18 d:/program files - hdd/mplab compiler x32/bin/bin/../../lib/gcc/pic32mx/4.8.3/../../../../pic32mx/lib\pic32_software_reset.o
 .reginfo       0x00000000       0x18 d:/program files - hdd/mplab compiler x32/bin/bin/../../lib/gcc/pic32mx/4.8.3/../../../../pic32mx/lib/./proc/32MX370F512L\processor.o
 .reginfo       0x00000000       0x18 d:/program files - hdd/mplab compiler x32/bin/bin/../../lib/gcc/pic32mx/4.8.3/../../../../pic32mx/lib\libmchp_peripheral.a(read_core_timer_lib.o)
 .reginfo       0x00000000       0x18 d:/program files - hdd/mplab compiler x32/bin/bin/../../lib/gcc/pic32mx/4.8.3/../../../../pic32mx/lib\libmchp_peripheral_32MX370F512L.a(pcache.o)
 .reginfo       0x00000000       0x18 d:/program files - hdd/mplab compiler x32/bin/bin/../../lib/gcc/pic32mx/4.8.3/../../../../pic32mx/lib\libmchp_peripheral_32MX370F512L.a(int_configure_system_lib.o)
 .reginfo       0x00000000       0x18 d:/program files - hdd/mplab compiler x32/bin/bin/../../lib/gcc/pic32mx/4.8.3/../../../../pic32mx/lib\libmchp_peripheral_32MX370F512L.a(int_enable_interrupts_lib.o)
 .reginfo       0x00000000       0x18 d:/program files - hdd/mplab compiler x32/bin/bin/../../lib/gcc/pic32mx/4.8.3/../../../../pic32mx/lib\libmchp_peripheral_32MX370F512L.a(int_disable_interrupts_lib.o)
 .reginfo       0x00000000       0x18 d:/program files - hdd/mplab compiler x32/bin/bin/../../lib/gcc/pic32mx/4.8.3/../../../../pic32mx/lib\libmchp_peripheral_32MX370F512L.a(int_restore_interrupts_lib.o)
 .reginfo       0x00000000       0x18 d:/program files - hdd/mplab compiler x32/bin/bin/../../lib/gcc/pic32mx/4.8.3/../../../../pic32mx/lib\libmchp_peripheral_32MX370F512L.a(int_tbl_lib.o)
 .reginfo       0x00000000       0x18 d:/program files - hdd/mplab compiler x32/bin/bin/../../lib/gcc/pic32mx/4.8.3/../../../../pic32mx/lib\libmchp_peripheral_32MX370F512L.a(dma_chn_set_ev_enable_flags_lib.o)
 .reginfo       0x00000000       0x18 d:/program files - hdd/mplab compiler x32/bin/bin/../../lib/gcc/pic32mx/4.8.3/../../../../pic32mx/lib\libmchp_peripheral_32MX370F512L.a(dma_chn_open_lib.o)
 .reginfo       0x00000000       0x18 d:/program files - hdd/mplab compiler x32/bin/bin/../../lib/gcc/pic32mx/4.8.3/../../../../pic32mx/lib\libmchp_peripheral_32MX370F512L.a(dma_chn_enable_lib.o)
 .reginfo       0x00000000       0x18 d:/program files - hdd/mplab compiler x32/bin/bin/../../lib/gcc/pic32mx/4.8.3/../../../../pic32mx/lib\libmchp_peripheral_32MX370F512L.a(dma_chn_get_ev_flags_lib.o)
 .reginfo       0x00000000       0x18 d:/program files - hdd/mplab compiler x32/bin/bin/../../lib/gcc/pic32mx/4.8.3/../../../../pic32mx/lib\libmchp_peripheral_32MX370F512L.a(dma_chn_write_event_control_flags_lib.o)
 .reginfo       0x00000000       0x18 d:/program files - hdd/mplab compiler x32/bin/bin/../../lib/gcc/pic32mx/4.8.3/../../../../pic32mx/lib\libmchp_peripheral_32MX370F512L.a(dma_chn_set_match_pattern_lib.o)
 .reginfo       0x00000000       0x18 d:/program files - hdd/mplab compiler x32/bin/bin/../../lib/gcc/pic32mx/4.8.3/../../../../pic32mx/lib\libmchp_peripheral_32MX370F512L.a(dma_chn_set_txfer_lib.o)
 .reginfo       0x00000000       0x18 d:/program files - hdd/mplab compiler x32/bin/bin/../../lib/gcc/pic32mx/4.8.3/../../../../pic32mx/lib\libmchp_peripheral_32MX370F512L.a(dma_reg_map_tbl_lib.o)
 .reginfo       0x00000000       0x18 d:/program files - hdd/mplab compiler x32/bin/bin/../../lib/gcc/pic32mx/4.8.3/../../../../pic32mx/lib\libmchp_peripheral_32MX370F512L.a(port_set_pins_digital_in_lib.o)
 .reginfo       0x00000000       0x18 d:/program files - hdd/mplab compiler x32/bin/bin/../../lib/gcc/pic32mx/4.8.3/../../../../pic32mx/lib\libmchp_peripheral_32MX370F512L.a(port_set_pins_digital_out_lib.o)
 .reginfo       0x00000000       0x18 d:/program files - hdd/mplab compiler x32/bin/bin/../../lib/gcc/pic32mx/4.8.3/../../../../pic32mx/lib\libmchp_peripheral_32MX370F512L.a(_ports_tbl_libp.o)
 .reginfo       0x00000000       0x18 d:/program files - hdd/mplab compiler x32/bin/bin/../../lib/gcc/pic32mx/4.8.3/../../../../pic32mx/lib\libmchp_peripheral_32MX370F512L.a(uart_lib.o)
 .reginfo       0x00000000       0x18 d:/program files - hdd/mplab compiler x32/bin/bin/../../lib/gcc/pic32mx/4.8.3/../../../../pic32mx/lib\libmchp_peripheral_32MX370F512L.a(I2CAcknowledgeByte.o)
 .reginfo       0x00000000       0x18 d:/program files - hdd/mplab compiler x32/bin/bin/../../lib/gcc/pic32mx/4.8.3/../../../../pic32mx/lib\libmchp_peripheral_32MX370F512L.a(I2CAcknowledgeHasCompleted.o)
 .reginfo       0x00000000       0x18 d:/program files - hdd/mplab compiler x32/bin/bin/../../lib/gcc/pic32mx/4.8.3/../../../../pic32mx/lib\libmchp_peripheral_32MX370F512L.a(I2CBusIsIdle.o)
 .reginfo       0x00000000       0x18 d:/program files - hdd/mplab compiler x32/bin/bin/../../lib/gcc/pic32mx/4.8.3/../../../../pic32mx/lib\libmchp_peripheral_32MX370F512L.a(I2CByteWasAcknowledged.o)
 .reginfo       0x00000000       0x18 d:/program files - hdd/mplab compiler x32/bin/bin/../../lib/gcc/pic32mx/4.8.3/../../../../pic32mx/lib\libmchp_peripheral_32MX370F512L.a(I2CEnable.o)
 .reginfo       0x00000000       0x18 d:/program files - hdd/mplab compiler x32/bin/bin/../../lib/gcc/pic32mx/4.8.3/../../../../pic32mx/lib\libmchp_peripheral_32MX370F512L.a(I2CGetByte.o)
 .reginfo       0x00000000       0x18 d:/program files - hdd/mplab compiler x32/bin/bin/../../lib/gcc/pic32mx/4.8.3/../../../../pic32mx/lib\libmchp_peripheral_32MX370F512L.a(I2CGetStatus.o)
 .reginfo       0x00000000       0x18 d:/program files - hdd/mplab compiler x32/bin/bin/../../lib/gcc/pic32mx/4.8.3/../../../../pic32mx/lib\libmchp_peripheral_32MX370F512L.a(I2CReceivedDataIsAvailable.o)
 .reginfo       0x00000000       0x18 d:/program files - hdd/mplab compiler x32/bin/bin/../../lib/gcc/pic32mx/4.8.3/../../../../pic32mx/lib\libmchp_peripheral_32MX370F512L.a(I2CReceiverEnable.o)
 .reginfo       0x00000000       0x18 d:/program files - hdd/mplab compiler x32/bin/bin/../../lib/gcc/pic32mx/4.8.3/../../../../pic32mx/lib\libmchp_peripheral_32MX370F512L.a(I2CRepeatStart.o)
 .reginfo       0x00000000       0x18 d:/program files - hdd/mplab compiler x32/bin/bin/../../lib/gcc/pic32mx/4.8.3/../../../../pic32mx/lib\libmchp_peripheral_32MX370F512L.a(I2CSendByte.o)
 .reginfo       0x00000000       0x18 d:/program files - hdd/mplab compiler x32/bin/bin/../../lib/gcc/pic32mx/4.8.3/../../../../pic32mx/lib\libmchp_peripheral_32MX370F512L.a(I2CSetFrequency.o)
 .reginfo       0x00000000       0x18 d:/program files - hdd/mplab compiler x32/bin/bin/../../lib/gcc/pic32mx/4.8.3/../../../../pic32mx/lib\libmchp_peripheral_32MX370F512L.a(I2CStart.o)
 .reginfo       0x00000000       0x18 d:/program files - hdd/mplab compiler x32/bin/bin/../../lib/gcc/pic32mx/4.8.3/../../../../pic32mx/lib\libmchp_peripheral_32MX370F512L.a(I2CStop.o)
 .reginfo       0x00000000       0x18 d:/program files - hdd/mplab compiler x32/bin/bin/../../lib/gcc/pic32mx/4.8.3/../../../../pic32mx/lib\libmchp_peripheral_32MX370F512L.a(I2CTransmissionHasCompleted.o)
 .reginfo       0x00000000       0x18 d:/program files - hdd/mplab compiler x32/bin/bin/../../lib/gcc/pic32mx/4.8.3/../../../../pic32mx/lib\libmchp_peripheral_32MX370F512L.a(I2CTransmitterIsReady.o)
 .reginfo       0x00000000       0x18 d:/program files - hdd/mplab compiler x32/bin/bin/../../lib/gcc/pic32mx/4.8.3/../../../../pic32mx/lib\libmchp_peripheral_32MX370F512L.a(I2CPrivate.o)
 .reginfo       0x00000000       0x18 d:/program files - hdd/mplab compiler x32/bin/bin/../../lib/gcc/pic32mx/4.8.3/../../../../pic32mx/lib\libpic32.a(strcpy.o)
 .reginfo       0x00000000       0x18 d:/program files - hdd/mplab compiler x32/bin/bin/../../lib/gcc/pic32mx/4.8.3/../../../../pic32mx/lib\libpic32.a(strlen.o)
 .reginfo       0x00000000       0x18 d:/program files - hdd/mplab compiler x32/bin/bin/../../lib/gcc/pic32mx/4.8.3/../../../../pic32mx/lib\libpic32.a(default-bootstrap-exception-handler.o)
 .reginfo       0x00000000       0x18 d:/program files - hdd/mplab compiler x32/bin/bin/../../lib/gcc/pic32mx/4.8.3/../../../../pic32mx/lib\libpic32.a(default-on-reset.o)
 .reginfo       0x00000000       0x18 d:/program files - hdd/mplab compiler x32/bin/bin/../../lib/gcc/pic32mx/4.8.3/../../../../pic32mx/lib\libpic32.a(default-on-bootstrap.o)
 .reginfo       0x00000000       0x18 d:/program files - hdd/mplab compiler x32/bin/bin/../../lib/gcc/pic32mx/4.8.3/../../../../pic32mx/lib\libpic32.a(default-nmi-handler.o)
 .reginfo       0x00000000       0x18 d:/program files - hdd/mplab compiler x32/bin/bin/../../lib/gcc/pic32mx/4.8.3/../../../../pic32mx/lib\libpic32.a(general-exception.o)
 .reginfo       0x00000000       0x18 d:/program files - hdd/mplab compiler x32/bin/bin/../../lib/gcc/pic32mx/4.8.3/../../../../pic32mx/lib\libpic32.a(vector0.o)
 .reginfo       0x00000000       0x18 d:/program files - hdd/mplab compiler x32/bin/bin/../../lib/gcc/pic32mx/4.8.3/../../../../pic32mx/lib\libpic32.a(vector1.o)
 .reginfo       0x00000000       0x18 d:/program files - hdd/mplab compiler x32/bin/bin/../../lib/gcc/pic32mx/4.8.3/../../../../pic32mx/lib\libpic32.a(vector2.o)
 .reginfo       0x00000000       0x18 d:/program files - hdd/mplab compiler x32/bin/bin/../../lib/gcc/pic32mx/4.8.3/../../../../pic32mx/lib\libpic32.a(vector3.o)
 .reginfo       0x00000000       0x18 d:/program files - hdd/mplab compiler x32/bin/bin/../../lib/gcc/pic32mx/4.8.3/../../../../pic32mx/lib\libpic32.a(vector5.o)
 .reginfo       0x00000000       0x18 d:/program files - hdd/mplab compiler x32/bin/bin/../../lib/gcc/pic32mx/4.8.3/../../../../pic32mx/lib\libpic32.a(vector6.o)
 .reginfo       0x00000000       0x18 d:/program files - hdd/mplab compiler x32/bin/bin/../../lib/gcc/pic32mx/4.8.3/../../../../pic32mx/lib\libpic32.a(vector7.o)
 .reginfo       0x00000000       0x18 d:/program files - hdd/mplab compiler x32/bin/bin/../../lib/gcc/pic32mx/4.8.3/../../../../pic32mx/lib\libpic32.a(vector8.o)
 .reginfo       0x00000000       0x18 d:/program files - hdd/mplab compiler x32/bin/bin/../../lib/gcc/pic32mx/4.8.3/../../../../pic32mx/lib\libpic32.a(vector9.o)
 .reginfo       0x00000000       0x18 d:/program files - hdd/mplab compiler x32/bin/bin/../../lib/gcc/pic32mx/4.8.3/../../../../pic32mx/lib\libpic32.a(vector10.o)
 .reginfo       0x00000000       0x18 d:/program files - hdd/mplab compiler x32/bin/bin/../../lib/gcc/pic32mx/4.8.3/../../../../pic32mx/lib\libpic32.a(vector11.o)
 .reginfo       0x00000000       0x18 d:/program files - hdd/mplab compiler x32/bin/bin/../../lib/gcc/pic32mx/4.8.3/../../../../pic32mx/lib\libpic32.a(vector12.o)
 .reginfo       0x00000000       0x18 d:/program files - hdd/mplab compiler x32/bin/bin/../../lib/gcc/pic32mx/4.8.3/../../../../pic32mx/lib\libpic32.a(vector13.o)
 .reginfo       0x00000000       0x18 d:/program files - hdd/mplab compiler x32/bin/bin/../../lib/gcc/pic32mx/4.8.3/../../../../pic32mx/lib\libpic32.a(vector14.o)
 .reginfo       0x00000000       0x18 d:/program files - hdd/mplab compiler x32/bin/bin/../../lib/gcc/pic32mx/4.8.3/../../../../pic32mx/lib\libpic32.a(vector15.o)
 .reginfo       0x00000000       0x18 d:/program files - hdd/mplab compiler x32/bin/bin/../../lib/gcc/pic32mx/4.8.3/../../../../pic32mx/lib\libpic32.a(vector16.o)
 .reginfo       0x00000000       0x18 d:/program files - hdd/mplab compiler x32/bin/bin/../../lib/gcc/pic32mx/4.8.3/../../../../pic32mx/lib\libpic32.a(vector17.o)
 .reginfo       0x00000000       0x18 d:/program files - hdd/mplab compiler x32/bin/bin/../../lib/gcc/pic32mx/4.8.3/../../../../pic32mx/lib\libpic32.a(vector18.o)
 .reginfo       0x00000000       0x18 d:/program files - hdd/mplab compiler x32/bin/bin/../../lib/gcc/pic32mx/4.8.3/../../../../pic32mx/lib\libpic32.a(vector19.o)
 .reginfo       0x00000000       0x18 d:/program files - hdd/mplab compiler x32/bin/bin/../../lib/gcc/pic32mx/4.8.3/../../../../pic32mx/lib\libpic32.a(vector20.o)
 .reginfo       0x00000000       0x18 d:/program files - hdd/mplab compiler x32/bin/bin/../../lib/gcc/pic32mx/4.8.3/../../../../pic32mx/lib\libpic32.a(vector21.o)
 .reginfo       0x00000000       0x18 d:/program files - hdd/mplab compiler x32/bin/bin/../../lib/gcc/pic32mx/4.8.3/../../../../pic32mx/lib\libpic32.a(vector22.o)
 .reginfo       0x00000000       0x18 d:/program files - hdd/mplab compiler x32/bin/bin/../../lib/gcc/pic32mx/4.8.3/../../../../pic32mx/lib\libpic32.a(vector23.o)
 .reginfo       0x00000000       0x18 d:/program files - hdd/mplab compiler x32/bin/bin/../../lib/gcc/pic32mx/4.8.3/../../../../pic32mx/lib\libpic32.a(vector24.o)
 .reginfo       0x00000000       0x18 d:/program files - hdd/mplab compiler x32/bin/bin/../../lib/gcc/pic32mx/4.8.3/../../../../pic32mx/lib\libpic32.a(vector25.o)
 .reginfo       0x00000000       0x18 d:/program files - hdd/mplab compiler x32/bin/bin/../../lib/gcc/pic32mx/4.8.3/../../../../pic32mx/lib\libpic32.a(vector26.o)
 .reginfo       0x00000000       0x18 d:/program files - hdd/mplab compiler x32/bin/bin/../../lib/gcc/pic32mx/4.8.3/../../../../pic32mx/lib\libpic32.a(vector27.o)
 .reginfo       0x00000000       0x18 d:/program files - hdd/mplab compiler x32/bin/bin/../../lib/gcc/pic32mx/4.8.3/../../../../pic32mx/lib\libpic32.a(vector28.o)
 .reginfo       0x00000000       0x18 d:/program files - hdd/mplab compiler x32/bin/bin/../../lib/gcc/pic32mx/4.8.3/../../../../pic32mx/lib\libpic32.a(vector29.o)
 .reginfo       0x00000000       0x18 d:/program files - hdd/mplab compiler x32/bin/bin/../../lib/gcc/pic32mx/4.8.3/../../../../pic32mx/lib\libpic32.a(vector30.o)
 .reginfo       0x00000000       0x18 d:/program files - hdd/mplab compiler x32/bin/bin/../../lib/gcc/pic32mx/4.8.3/../../../../pic32mx/lib\libpic32.a(vector31.o)
 .reginfo       0x00000000       0x18 d:/program files - hdd/mplab compiler x32/bin/bin/../../lib/gcc/pic32mx/4.8.3/../../../../pic32mx/lib\libpic32.a(vector32.o)
 .reginfo       0x00000000       0x18 d:/program files - hdd/mplab compiler x32/bin/bin/../../lib/gcc/pic32mx/4.8.3/../../../../pic32mx/lib\libpic32.a(vector34.o)
 .reginfo       0x00000000       0x18 d:/program files - hdd/mplab compiler x32/bin/bin/../../lib/gcc/pic32mx/4.8.3/../../../../pic32mx/lib\libpic32.a(vector35.o)
 .reginfo       0x00000000       0x18 d:/program files - hdd/mplab compiler x32/bin/bin/../../lib/gcc/pic32mx/4.8.3/../../../../pic32mx/lib\libpic32.a(vector37.o)
 .reginfo       0x00000000       0x18 d:/program files - hdd/mplab compiler x32/bin/bin/../../lib/gcc/pic32mx/4.8.3/../../../../pic32mx/lib\libpic32.a(vector38.o)
 .reginfo       0x00000000       0x18 d:/program files - hdd/mplab compiler x32/bin/bin/../../lib/gcc/pic32mx/4.8.3/../../../../pic32mx/lib\libpic32.a(vector39.o)
 .reginfo       0x00000000       0x18 d:/program files - hdd/mplab compiler x32/bin/bin/../../lib/gcc/pic32mx/4.8.3/../../../../pic32mx/lib\libpic32.a(vector40.o)
 .reginfo       0x00000000       0x18 d:/program files - hdd/mplab compiler x32/bin/bin/../../lib/gcc/pic32mx/4.8.3/../../../../pic32mx/lib\libpic32.a(vector41.o)
 .reginfo       0x00000000       0x18 d:/program files - hdd/mplab compiler x32/bin/bin/../../lib/gcc/pic32mx/4.8.3/../../../../pic32mx/lib\libpic32.a(vector42.o)
 .reginfo       0x00000000       0x18 d:/program files - hdd/mplab compiler x32/bin/bin/../../lib/gcc/pic32mx/4.8.3/../../../../pic32mx/lib\libpic32.a(vector44.o)
 .reginfo       0x00000000       0x18 d:/program files - hdd/mplab compiler x32/bin/bin/../../lib/gcc/pic32mx/4.8.3/../../../../pic32mx/lib\libpic32.a(vector45.o)
 .reginfo       0x00000000       0x18 d:/program files - hdd/mplab compiler x32/bin/bin/../../lib/gcc/pic32mx/4.8.3/../../../../pic32mx/lib\libpic32.a(default-general-exception-handler.o)
 .reginfo       0x00000000       0x18 d:/program files - hdd/mplab compiler x32/bin/bin/../../lib/gcc/pic32mx/4.8.3/../../../../pic32mx/lib\libpic32.a(defaultinterrupt.o)
 .reginfo       0x00000000       0x18 d:/program files - hdd/mplab compiler x32/bin/bin/../../lib/gcc/pic32mx/4.8.3/../../../../pic32mx/lib\libc.a(ctype.o)
 .reginfo       0x00000000       0x18 d:/program files - hdd/mplab compiler x32/bin/bin/../../lib/gcc/pic32mx/4.8.3/../../../../pic32mx/lib\libc.a(puts.o)
 .reginfo       0x00000000       0x18 d:/program files - hdd/mplab compiler x32/bin/bin/../../lib/gcc/pic32mx/4.8.3/../../../../pic32mx/lib\libc.a(strchr.o)
 .reginfo       0x00000000       0x18 d:/program files - hdd/mplab compiler x32/bin/bin/../../lib/gcc/pic32mx/4.8.3/../../../../pic32mx/lib\libc.a(strstr.o)
 .reginfo       0x00000000       0x18 d:/program files - hdd/mplab compiler x32/bin/bin/../../lib/gcc/pic32mx/4.8.3/../../../../pic32mx/lib\libc.a(strtol.o)
 .reginfo       0x00000000       0x18 d:/program files - hdd/mplab compiler x32/bin/bin/../../lib/gcc/pic32mx/4.8.3/../../../../pic32mx/lib\libc.a(printf_cdfFnopsuxX.eo)
 .reginfo       0x00000000       0x18 d:/program files - hdd/mplab compiler x32/bin/bin/../../lib/gcc/pic32mx/4.8.3/../../../../pic32mx/lib\libc.a(sprintf_cdnopuxX.eo)
 .reginfo       0x00000000       0x18 d:/program files - hdd/mplab compiler x32/bin/bin/../../lib/gcc/pic32mx/4.8.3/../../../../pic32mx/lib\libc.a(sscanf_cdfFnopuxX.eo)
 .reginfo       0x00000000       0x18 d:/program files - hdd/mplab compiler x32/bin/bin/../../lib/gcc/pic32mx/4.8.3/../../../../pic32mx/lib\libc.a(_iob.o)
 .reginfo       0x00000000       0x18 d:/program files - hdd/mplab compiler x32/bin/bin/../../lib/gcc/pic32mx/4.8.3/../../../../pic32mx/lib\libc.a(_fputc_simple.o)
 .reginfo       0x00000000       0x18 d:/program files - hdd/mplab compiler x32/bin/bin/../../lib/gcc/pic32mx/4.8.3/../../../../pic32mx/lib\libc.a(ctypef.o)
 .reginfo       0x00000000       0x18 d:/program files - hdd/mplab compiler x32/bin/bin/../../lib/gcc/pic32mx/4.8.3/../../../../pic32mx/lib\libc.a(errno.o)
 .reginfo       0x00000000       0x18 d:/program files - hdd/mplab compiler x32/bin/bin/../../lib/gcc/pic32mx/4.8.3/../../../../pic32mx/lib\libc.a(strncmp.o)
 .reginfo       0x00000000       0x18 d:/program files - hdd/mplab compiler x32/bin/bin/../../lib/gcc/pic32mx/4.8.3/../../../../pic32mx/lib\libc.a(doprnt_cdfFnopsuxX.eo)
 .reginfo       0x00000000       0x18 d:/program files - hdd/mplab compiler x32/bin/bin/../../lib/gcc/pic32mx/4.8.3/../../../../pic32mx/lib\libc.a(doscan_cdfFnopuxX.eo)
 .reginfo       0x00000000       0x18 d:/program files - hdd/mplab compiler x32/bin/bin/../../lib/gcc/pic32mx/4.8.3/../../../../pic32mx/lib\libc.a(_flsbuf_simple.o)
 .reginfo       0x00000000       0x18 d:/program files - hdd/mplab compiler x32/bin/bin/../../lib/gcc/pic32mx/4.8.3/../../../../pic32mx/lib\libc.a(fgetc.o)
 .reginfo       0x00000000       0x18 d:/program files - hdd/mplab compiler x32/bin/bin/../../lib/gcc/pic32mx/4.8.3/../../../../pic32mx/lib\libc.a(atoi.o)
 .reginfo       0x00000000       0x18 d:/program files - hdd/mplab compiler x32/bin/bin/../../lib/gcc/pic32mx/4.8.3/../../../../pic32mx/lib\libc.a(ldpowers.o)
 .reginfo       0x00000000       0x18 d:/program files - hdd/mplab compiler x32/bin/bin/../../lib/gcc/pic32mx/4.8.3/../../../../pic32mx/lib\libc.a(strtod.o)
 .reginfo       0x00000000       0x18 d:/program files - hdd/mplab compiler x32/bin/bin/../../lib/gcc/pic32mx/4.8.3/../../../../pic32mx/lib\libc.a(strtof.o)
 .reginfo       0x00000000       0x18 d:/program files - hdd/mplab compiler x32/bin/bin/../../lib/gcc/pic32mx/4.8.3/../../../../pic32mx/lib\libc.a(ungetc.o)
 .reginfo       0x00000000       0x18 d:/program files - hdd/mplab compiler x32/bin/bin/../../lib/gcc/pic32mx/4.8.3/../../../../pic32mx/lib\libc.a(filbuf.o)
 .reginfo       0x00000000       0x18 d:/program files - hdd/mplab compiler x32/bin/bin/../../lib/gcc/pic32mx/4.8.3/../../../../pic32mx/lib\libc.a(fflush.o)
 .reginfo       0x00000000       0x18 d:/program files - hdd/mplab compiler x32/bin/bin/../../lib/gcc/pic32mx/4.8.3/../../../../pic32mx/lib\libm.a(dpfrexp.o)
 .reginfo       0x00000000       0x18 d:/program files - hdd/mplab compiler x32/bin/bin/../../lib/gcc/pic32mx/4.8.3/../../../../pic32mx/lib\libm.a(dp32div.o)
 .reginfo       0x00000000       0x18 d:/program files - hdd/mplab compiler x32/bin/bin/../../lib/gcc/pic32mx/4.8.3/../../../../pic32mx/lib\libm.a(dp32mul.o)
 .reginfo       0x00000000       0x18 d:/program files - hdd/mplab compiler x32/bin/bin/../../lib/gcc/pic32mx/4.8.3/../../../../pic32mx/lib\libm.a(dp32subadd.o)
 .reginfo       0x00000000       0x18 d:/program files - hdd/mplab compiler x32/bin/bin/../../lib/gcc/pic32mx/4.8.3/../../../../pic32mx/lib\libm.a(dpcmp.o)
 .reginfo       0x00000000       0x18 d:/program files - hdd/mplab compiler x32/bin/bin/../../lib/gcc/pic32mx/4.8.3/../../../../pic32mx/lib\libm.a(dptofp.o)
 .reginfo       0x00000000       0x18 d:/program files - hdd/mplab compiler x32/bin/bin/../../lib/gcc/pic32mx/4.8.3/../../../../pic32mx/lib\libm.a(fp32div.o)
 .reginfo       0x00000000       0x18 d:/program files - hdd/mplab compiler x32/bin/bin/../../lib/gcc/pic32mx/4.8.3/../../../../pic32mx/lib\libm.a(fp32mul.o)
 .reginfo       0x00000000       0x18 d:/program files - hdd/mplab compiler x32/bin/bin/../../lib/gcc/pic32mx/4.8.3/../../../../pic32mx/lib\libm.a(fp32subadd.o)
 .reginfo       0x00000000       0x18 d:/program files - hdd/mplab compiler x32/bin/bin/../../lib/gcc/pic32mx/4.8.3/../../../../pic32mx/lib\libm.a(fpcmp.o)
 .reginfo       0x00000000       0x18 d:/program files - hdd/mplab compiler x32/bin/bin/../../lib/gcc/pic32mx/4.8.3/../../../../pic32mx/lib\libm.a(fptodp.o)
 .reginfo       0x00000000       0x18 d:/program files - hdd/mplab compiler x32/bin/bin/../../lib/gcc/pic32mx/4.8.3/../../../../pic32mx/lib\libm.a(fptoli.o)
 .reginfo       0x00000000       0x18 d:/program files - hdd/mplab compiler x32/bin/bin/../../lib/gcc/pic32mx/4.8.3/../../../../pic32mx/lib\libm.a(sitofp.o)
 .reginfo       0x00000000       0x18 d:/program files - hdd/mplab compiler x32/bin/bin/../../lib/gcc/pic32mx/4.8.3/../../../../pic32mx/lib\libm.a(w_atan2f.o)
 .reginfo       0x00000000       0x18 d:/program files - hdd/mplab compiler x32/bin/bin/../../lib/gcc/pic32mx/4.8.3/../../../../pic32mx/lib\libm.a(__strtod.o)
 .reginfo       0x00000000       0x18 d:/program files - hdd/mplab compiler x32/bin/bin/../../lib/gcc/pic32mx/4.8.3/../../../../pic32mx/lib\libm.a(__strtof.o)
 .reginfo       0x00000000       0x18 d:/program files - hdd/mplab compiler x32/bin/bin/../../lib/gcc/pic32mx/4.8.3/../../../../pic32mx/lib\libm.a(support.o)
 .reginfo       0x00000000       0x18 d:/program files - hdd/mplab compiler x32/bin/bin/../../lib/gcc/pic32mx/4.8.3/../../../../pic32mx/lib\libm.a(dpldexp.o)
 .reginfo       0x00000000       0x18 d:/program files - hdd/mplab compiler x32/bin/bin/../../lib/gcc/pic32mx/4.8.3/../../../../pic32mx/lib\libm.a(fpatan2.o)
 .reginfo       0x00000000       0x18 d:/program files - hdd/mplab compiler x32/bin/bin/../../lib/gcc/pic32mx/4.8.3/../../../../pic32mx/lib\libm.a(fpexatan.o)
 .reginfo       0x00000000       0x18 d:/program files - hdd/mplab compiler x32/bin/bin/../../lib/gcc/pic32mx/4.8.3/../../../../pic32mx/lib\libm.a(fpexsqrt32.o)
 .reginfo       0x00000000       0x18 d:/program files - hdd/mplab compiler x32/bin/bin/../../lib/gcc/pic32mx/4.8.3/../../../../pic32mx/lib\libm.a(litodp.o)
 .reginfo       0x00000000       0x18 d:/program files - hdd/mplab compiler x32/bin/bin/../../lib/gcc/pic32mx/4.8.3/../../../../pic32mx/lib\libm.a(negdf2.o)
 .reginfo       0x00000000       0x18 d:/program files - hdd/mplab compiler x32/bin/bin/../../lib/gcc/pic32mx/4.8.3/../../../../pic32mx/lib\libm.a(negsf2.o)
 .reginfo       0x00000000       0x18 d:/program files - hdd/mplab compiler x32/bin/bin/../../lib/gcc/pic32mx/4.8.3/../../../../pic32mx/lib\libe.a(_fixunsdfdi.o)
 .reginfo       0x00000000       0x18 d:/program files - hdd/mplab compiler x32/bin/bin/../../lib/gcc/pic32mx/4.8.3/../../../../pic32mx/lib\libe.a(_orderdf2.o)
 .reginfo       0x00000000       0x18 d:/program files - hdd/mplab compiler x32/bin/bin/../../lib/gcc/pic32mx/4.8.3/../../../../pic32mx/lib\libe.a(_ldexp.o)
 .reginfo       0x00000000       0x18 d:/program files - hdd/mplab compiler x32/bin/bin/../../lib/gcc/pic32mx/4.8.3/../../../../pic32mx/lib\libe.a(_ldexpf.o)
 .reginfo       0x00000000       0x18 d:/program files - hdd/mplab compiler x32/bin/bin/../../lib/gcc/pic32mx/4.8.3/../../../../pic32mx/lib\libe.a(_fixdfdi.o)
 .reginfo       0x00000000       0x18 d:/program files - hdd/mplab compiler x32/bin/bin/../../lib/gcc/pic32mx/4.8.3\libgcc.a(_lshrdi3.o)
 .reginfo       0x00000000       0x18 d:/program files - hdd/mplab compiler x32/bin/bin/../../lib/gcc/pic32mx/4.8.3\libgcc.a(_ashldi3.o)
 .reginfo       0x00000000       0x18 d:/program files - hdd/mplab compiler x32/bin/bin/../../lib/gcc/pic32mx/4.8.3\libgcc.a(_floatundidf.o)
 .reginfo       0x00000000       0x18 d:/program files - hdd/mplab compiler x32/bin/bin/../../lib/gcc/pic32mx/4.8.3\libgcc.a(_udivdi3.o)
 .reginfo       0x00000000       0x18 d:/program files - hdd/mplab compiler x32/bin/bin/../../lib/gcc/pic32mx/4.8.3\libgcc.a(_umoddi3.o)
 .reginfo       0x00000000       0x18 d:/program files - hdd/mplab compiler x32/bin/bin/../../lib/gcc/pic32mx/4.8.3\libgcc.a(floatunsidf.o)
 .reginfo       0x00000000       0x18 d:/program files - hdd/mplab compiler x32/bin/bin/../../lib/gcc/pic32mx/4.8.3/../../../../pic32mx/lib\libpic32.a(read.o)
 .reginfo       0x00000000       0x18 d:/program files - hdd/mplab compiler x32/bin/bin/../../lib/gcc/pic32mx/4.8.3/../../../../pic32mx/lib\libpic32.a(write.o)
 .reginfo       0x00000000       0x18 d:/program files - hdd/mplab compiler x32/bin/bin/../../lib/gcc/pic32mx/4.8.3/../../../../pic32mx/lib\libpic32.a(xc32_uart.o)

Memory Configuration

Name             Origin             Length             Attributes
kseg0_program_mem 0x9d000000         0x00080000         xr
kseg0_boot_mem   0x9fc00490         0x00000970
exception_mem    0x9fc01000         0x00001000
kseg1_boot_mem   0xbfc00000         0x00000490
debug_exec_mem   0xbfc02000         0x00000ff0
config3          0xbfc02ff0         0x00000004
config2          0xbfc02ff4         0x00000004
config1          0xbfc02ff8         0x00000004
config0          0xbfc02ffc         0x00000004
kseg1_data_mem   0xa0000000         0x00020000         w !x
sfrs             0xbf800000         0x00100000
configsfrs       0xbfc02ff0         0x00000010
*default*        0x00000000         0xffffffff

Linker script and memory map

LOAD d:/program files - hdd/mplab compiler x32/bin/bin/../../lib/gcc/pic32mx/4.8.3/../../../../pic32mx/lib/./proc/32MX370F512L/crt0_mips32r2.o
LOAD d:/program files - hdd/mplab compiler x32/bin/bin/../../lib/gcc/pic32mx/4.8.3/../../../../pic32mx/lib\debug-exception-return.o
LOAD build/default/production/_ext/1472/LCDlib.o
LOAD build/default/production/_ext/1472/hardware.o
LOAD build/default/production/_ext/1472/led7.o
LOAD build/default/production/_ext/1472/main.o
LOAD build/default/production/_ext/1472/swDelay.o
LOAD build/default/production/_ext/1472/uart2.o
LOAD build/default/production/_ext/1472/uart4.o
LOAD build/default/production/_ext/1472/RC.o
LOAD build/default/production/_ext/1472/Pot.o
LOAD build/default/production/_ext/1472/GPS_I2C.o
LOAD build/default/production/_ext/1472/i2c_lib.o
LOAD build/default/production/_ext/1472/Gamepad.o
LOAD build/default/production/_ext/1472/ADC_TEMP.o
LOAD build/default/production/_ext/1472/CycleData.o
LOAD build/default/production/_ext/1472/Notice.o
LOAD build/default/production/_ext/1472/DMA_UART2.o
LOAD build/default/production/_ext/1472/MAG3110.o
LOAD build/default/production/_ext/1472/Stepper.o
                0x00000001                __MPLAB_BUILD = 0x1
                0x00000800                _min_heap_size = 0x800
LOAD d:/program files - hdd/mplab compiler x32/bin/bin/../../lib/gcc/pic32mx/4.8.3/../../../../pic32mx/lib/./proc/32MX370F512L\default_isr_vectors.o
LOAD d:/program files - hdd/mplab compiler x32/bin/bin/../../lib/gcc/pic32mx/4.8.3/../../../../pic32mx/lib\pic32_software_reset.o
                0x00000400                PROVIDE (_min_stack_size, 0x400)
LOAD d:/program files - hdd/mplab compiler x32/bin/bin/../../lib/gcc/pic32mx/4.8.3/../../../../pic32mx/lib/./proc/32MX370F512L\processor.o
START GROUP
LOAD d:/program files - hdd/mplab compiler x32/bin/bin/../../lib/gcc/pic32mx/4.8.3/../../../../pic32mx/lib\libmchp_peripheral.a
END GROUP
START GROUP
LOAD d:/program files - hdd/mplab compiler x32/bin/bin/../../lib/gcc/pic32mx/4.8.3/../../../../pic32mx/lib\libmchp_peripheral_32MX370F512L.a
END GROUP
                0x00000001                PROVIDE (_vector_spacing, 0x1)
                0x9fc01000                PROVIDE (_ebase_address, 0x9fc01000)
                0xbfc00000                _RESET_ADDR = 0xbfc00000
                0xbfc00380                _BEV_EXCPT_ADDR = 0xbfc00380
                0xbfc00480                _DBG_EXCPT_ADDR = 0xbfc00480
                0xbfc02000                _DBG_CODE_ADDR = 0xbfc02000
                0x00000ff0                _DBG_CODE_SIZE = 0xff0
                0x9fc01180                _GEN_EXCPT_ADDR = (_ebase_address + 0x180)

.config_BFC02FF0
                0xbfc02ff0        0x4
 *(.config_BFC02FF0)
 .config_BFC02FF0
                0xbfc02ff0        0x4 build/default/production/_ext/1472/main.o

.config_BFC02FF4
                0xbfc02ff4        0x4
 *(.config_BFC02FF4)
 .config_BFC02FF4
                0xbfc02ff4        0x4 build/default/production/_ext/1472/main.o

.config_BFC02FF8
                0xbfc02ff8        0x4
 *(.config_BFC02FF8)
 .config_BFC02FF8
                0xbfc02ff8        0x4 build/default/production/_ext/1472/main.o

.config_BFC02FFC
                0xbfc02ffc        0x4
 *(.config_BFC02FFC)
 .config_BFC02FFC
                0xbfc02ffc        0x4 build/default/production/_ext/1472/main.o
                0xbfc02000                PROVIDE (_DBG_CODE_ADDR, 0xbfc02000)
                0x00000ff0                PROVIDE (_DBG_CODE_SIZE, 0xff0)

.reset          0xbfc00000      0x208
 *(.reset)
 .reset         0xbfc00000        0x8 d:/program files - hdd/mplab compiler x32/bin/bin/../../lib/gcc/pic32mx/4.8.3/../../../../pic32mx/lib/./proc/32MX370F512L/crt0_mips32r2.o
                0xbfc00000                _reset
 *(.reset.startup)
 .reset.startup
                0xbfc00008      0x200 d:/program files - hdd/mplab compiler x32/bin/bin/../../lib/gcc/pic32mx/4.8.3/../../../../pic32mx/lib/./proc/32MX370F512L/crt0_mips32r2.o
                0xbfc00008                _startup

.bev_excpt      0xbfc00380       0x10
 *(.bev_handler)
 .bev_handler   0xbfc00380       0x10 d:/program files - hdd/mplab compiler x32/bin/bin/../../lib/gcc/pic32mx/4.8.3/../../../../pic32mx/lib/./proc/32MX370F512L/crt0_mips32r2.o

.dbg_excpt      0xbfc00480        0x0
                0xbfc00480                . = (. + DEFINED (_DEBUGGER)?0x8:0x0)

.dbg_code       0xbfc02000        0x0
                0xbfc02000                . = (. + DEFINED (_DEBUGGER)?_DBG_CODE_SIZE:0x0)

.app_excpt      0x9fc01180       0x10
 *(.gen_handler)
 .gen_handler   0x9fc01180       0x10 d:/program files - hdd/mplab compiler x32/bin/bin/../../lib/gcc/pic32mx/4.8.3/../../../../pic32mx/lib/./proc/32MX370F512L/crt0_mips32r2.o

.vector_0       0x9fc01200        0x8
 *(.vector_0)
 .vector_0      0x9fc01200        0x8 d:/program files - hdd/mplab compiler x32/bin/bin/../../lib/gcc/pic32mx/4.8.3/../../../../pic32mx/lib\libpic32.a(vector0.o)
                0x9fc01200                __vector_dispatch_0
                0x00000001                ASSERT (((_vector_spacing == 0x0) || (SIZEOF (.vector_0) <= (_vector_spacing << 0x5))), function at exception vector 0 too large)

.vector_1       0x9fc01220        0x8
 *(.vector_1)
 .vector_1      0x9fc01220        0x8 d:/program files - hdd/mplab compiler x32/bin/bin/../../lib/gcc/pic32mx/4.8.3/../../../../pic32mx/lib\libpic32.a(vector1.o)
                0x9fc01220                __vector_dispatch_1
                0x00000001                ASSERT (((_vector_spacing == 0x0) || (SIZEOF (.vector_1) <= (_vector_spacing << 0x5))), function at exception vector 1 too large)

.vector_2       0x9fc01240        0x8
 *(.vector_2)
 .vector_2      0x9fc01240        0x8 d:/program files - hdd/mplab compiler x32/bin/bin/../../lib/gcc/pic32mx/4.8.3/../../../../pic32mx/lib\libpic32.a(vector2.o)
                0x9fc01240                __vector_dispatch_2
                0x00000001                ASSERT (((_vector_spacing == 0x0) || (SIZEOF (.vector_2) <= (_vector_spacing << 0x5))), function at exception vector 2 too large)

.vector_3       0x9fc01260        0x8
 *(.vector_3)
 .vector_3      0x9fc01260        0x8 d:/program files - hdd/mplab compiler x32/bin/bin/../../lib/gcc/pic32mx/4.8.3/../../../../pic32mx/lib\libpic32.a(vector3.o)
                0x9fc01260                __vector_dispatch_3
                0x00000001                ASSERT (((_vector_spacing == 0x0) || (SIZEOF (.vector_3) <= (_vector_spacing << 0x5))), function at exception vector 3 too large)

.vector_4       0x9fc01280        0x8
 *(.vector_4)
 .vector_4      0x9fc01280        0x8 build/default/production/_ext/1472/hardware.o
                0x9fc01280                __vector_dispatch_4
                0x00000001                ASSERT (((_vector_spacing == 0x0) || (SIZEOF (.vector_4) <= (_vector_spacing << 0x5))), function at exception vector 4 too large)

.vector_5       0x9fc012a0        0x8
 *(.vector_5)
 .vector_5      0x9fc012a0        0x8 d:/program files - hdd/mplab compiler x32/bin/bin/../../lib/gcc/pic32mx/4.8.3/../../../../pic32mx/lib\libpic32.a(vector5.o)
                0x9fc012a0                __vector_dispatch_5
                0x00000001                ASSERT (((_vector_spacing == 0x0) || (SIZEOF (.vector_5) <= (_vector_spacing << 0x5))), function at exception vector 5 too large)

.vector_6       0x9fc012c0        0x8
 *(.vector_6)
 .vector_6      0x9fc012c0        0x8 d:/program files - hdd/mplab compiler x32/bin/bin/../../lib/gcc/pic32mx/4.8.3/../../../../pic32mx/lib\libpic32.a(vector6.o)
                0x9fc012c0                __vector_dispatch_6
                0x00000001                ASSERT (((_vector_spacing == 0x0) || (SIZEOF (.vector_6) <= (_vector_spacing << 0x5))), function at exception vector 6 too large)

.vector_7       0x9fc012e0        0x8
 *(.vector_7)
 .vector_7      0x9fc012e0        0x8 d:/program files - hdd/mplab compiler x32/bin/bin/../../lib/gcc/pic32mx/4.8.3/../../../../pic32mx/lib\libpic32.a(vector7.o)
                0x9fc012e0                __vector_dispatch_7
                0x00000001                ASSERT (((_vector_spacing == 0x0) || (SIZEOF (.vector_7) <= (_vector_spacing << 0x5))), function at exception vector 7 too large)

.vector_8       0x9fc01300        0x8
 *(.vector_8)
 .vector_8      0x9fc01300        0x8 d:/program files - hdd/mplab compiler x32/bin/bin/../../lib/gcc/pic32mx/4.8.3/../../../../pic32mx/lib\libpic32.a(vector8.o)
                0x9fc01300                __vector_dispatch_8
                0x00000001                ASSERT (((_vector_spacing == 0x0) || (SIZEOF (.vector_8) <= (_vector_spacing << 0x5))), function at exception vector 8 too large)

.vector_9       0x9fc01320        0x8
 *(.vector_9)
 .vector_9      0x9fc01320        0x8 d:/program files - hdd/mplab compiler x32/bin/bin/../../lib/gcc/pic32mx/4.8.3/../../../../pic32mx/lib\libpic32.a(vector9.o)
                0x9fc01320                __vector_dispatch_9
                0x00000001                ASSERT (((_vector_spacing == 0x0) || (SIZEOF (.vector_9) <= (_vector_spacing << 0x5))), function at exception vector 9 too large)

.vector_10      0x9fc01340        0x8
 *(.vector_10)
 .vector_10     0x9fc01340        0x8 d:/program files - hdd/mplab compiler x32/bin/bin/../../lib/gcc/pic32mx/4.8.3/../../../../pic32mx/lib\libpic32.a(vector10.o)
                0x9fc01340                __vector_dispatch_10
                0x00000001                ASSERT (((_vector_spacing == 0x0) || (SIZEOF (.vector_10) <= (_vector_spacing << 0x5))), function at exception vector 10 too large)

.vector_11      0x9fc01360        0x8
 *(.vector_11)
 .vector_11     0x9fc01360        0x8 d:/program files - hdd/mplab compiler x32/bin/bin/../../lib/gcc/pic32mx/4.8.3/../../../../pic32mx/lib\libpic32.a(vector11.o)
                0x9fc01360                __vector_dispatch_11
                0x00000001                ASSERT (((_vector_spacing == 0x0) || (SIZEOF (.vector_11) <= (_vector_spacing << 0x5))), function at exception vector 11 too large)

.vector_12      0x9fc01380        0x8
 *(.vector_12)
 .vector_12     0x9fc01380        0x8 d:/program files - hdd/mplab compiler x32/bin/bin/../../lib/gcc/pic32mx/4.8.3/../../../../pic32mx/lib\libpic32.a(vector12.o)
                0x9fc01380                __vector_dispatch_12
                0x00000001                ASSERT (((_vector_spacing == 0x0) || (SIZEOF (.vector_12) <= (_vector_spacing << 0x5))), function at exception vector 12 too large)

.vector_13      0x9fc013a0        0x8
 *(.vector_13)
 .vector_13     0x9fc013a0        0x8 d:/program files - hdd/mplab compiler x32/bin/bin/../../lib/gcc/pic32mx/4.8.3/../../../../pic32mx/lib\libpic32.a(vector13.o)
                0x9fc013a0                __vector_dispatch_13
                0x00000001                ASSERT (((_vector_spacing == 0x0) || (SIZEOF (.vector_13) <= (_vector_spacing << 0x5))), function at exception vector 13 too large)

.vector_14      0x9fc013c0        0x8
 *(.vector_14)
 .vector_14     0x9fc013c0        0x8 d:/program files - hdd/mplab compiler x32/bin/bin/../../lib/gcc/pic32mx/4.8.3/../../../../pic32mx/lib\libpic32.a(vector14.o)
                0x9fc013c0                __vector_dispatch_14
                0x00000001                ASSERT (((_vector_spacing == 0x0) || (SIZEOF (.vector_14) <= (_vector_spacing << 0x5))), function at exception vector 14 too large)

.vector_15      0x9fc013e0        0x8
 *(.vector_15)
 .vector_15     0x9fc013e0        0x8 d:/program files - hdd/mplab compiler x32/bin/bin/../../lib/gcc/pic32mx/4.8.3/../../../../pic32mx/lib\libpic32.a(vector15.o)
                0x9fc013e0                __vector_dispatch_15
                0x00000001                ASSERT (((_vector_spacing == 0x0) || (SIZEOF (.vector_15) <= (_vector_spacing << 0x5))), function at exception vector 15 too large)

.vector_16      0x9fc01400        0x8
 *(.vector_16)
 .vector_16     0x9fc01400        0x8 d:/program files - hdd/mplab compiler x32/bin/bin/../../lib/gcc/pic32mx/4.8.3/../../../../pic32mx/lib\libpic32.a(vector16.o)
                0x9fc01400                __vector_dispatch_16
                0x00000001                ASSERT (((_vector_spacing == 0x0) || (SIZEOF (.vector_16) <= (_vector_spacing << 0x5))), function at exception vector 16 too large)

.vector_17      0x9fc01420        0x8
 *(.vector_17)
 .vector_17     0x9fc01420        0x8 d:/program files - hdd/mplab compiler x32/bin/bin/../../lib/gcc/pic32mx/4.8.3/../../../../pic32mx/lib\libpic32.a(vector17.o)
                0x9fc01420                __vector_dispatch_17
                0x00000001                ASSERT (((_vector_spacing == 0x0) || (SIZEOF (.vector_17) <= (_vector_spacing << 0x5))), function at exception vector 17 too large)

.vector_18      0x9fc01440        0x8
 *(.vector_18)
 .vector_18     0x9fc01440        0x8 d:/program files - hdd/mplab compiler x32/bin/bin/../../lib/gcc/pic32mx/4.8.3/../../../../pic32mx/lib\libpic32.a(vector18.o)
                0x9fc01440                __vector_dispatch_18
                0x00000001                ASSERT (((_vector_spacing == 0x0) || (SIZEOF (.vector_18) <= (_vector_spacing << 0x5))), function at exception vector 18 too large)

.vector_19      0x9fc01460        0x8
 *(.vector_19)
 .vector_19     0x9fc01460        0x8 d:/program files - hdd/mplab compiler x32/bin/bin/../../lib/gcc/pic32mx/4.8.3/../../../../pic32mx/lib\libpic32.a(vector19.o)
                0x9fc01460                __vector_dispatch_19
                0x00000001                ASSERT (((_vector_spacing == 0x0) || (SIZEOF (.vector_19) <= (_vector_spacing << 0x5))), function at exception vector 19 too large)

.vector_20      0x9fc01480        0x8
 *(.vector_20)
 .vector_20     0x9fc01480        0x8 d:/program files - hdd/mplab compiler x32/bin/bin/../../lib/gcc/pic32mx/4.8.3/../../../../pic32mx/lib\libpic32.a(vector20.o)
                0x9fc01480                __vector_dispatch_20
                0x00000001                ASSERT (((_vector_spacing == 0x0) || (SIZEOF (.vector_20) <= (_vector_spacing << 0x5))), function at exception vector 20 too large)

.vector_21      0x9fc014a0        0x8
 *(.vector_21)
 .vector_21     0x9fc014a0        0x8 d:/program files - hdd/mplab compiler x32/bin/bin/../../lib/gcc/pic32mx/4.8.3/../../../../pic32mx/lib\libpic32.a(vector21.o)
                0x9fc014a0                __vector_dispatch_21
                0x00000001                ASSERT (((_vector_spacing == 0x0) || (SIZEOF (.vector_21) <= (_vector_spacing << 0x5))), function at exception vector 21 too large)

.vector_22      0x9fc014c0        0x8
 *(.vector_22)
 .vector_22     0x9fc014c0        0x8 d:/program files - hdd/mplab compiler x32/bin/bin/../../lib/gcc/pic32mx/4.8.3/../../../../pic32mx/lib\libpic32.a(vector22.o)
                0x9fc014c0                __vector_dispatch_22
                0x00000001                ASSERT (((_vector_spacing == 0x0) || (SIZEOF (.vector_22) <= (_vector_spacing << 0x5))), function at exception vector 22 too large)

.vector_23      0x9fc014e0        0x8
 *(.vector_23)
 .vector_23     0x9fc014e0        0x8 d:/program files - hdd/mplab compiler x32/bin/bin/../../lib/gcc/pic32mx/4.8.3/../../../../pic32mx/lib\libpic32.a(vector23.o)
                0x9fc014e0                __vector_dispatch_23
                0x00000001                ASSERT (((_vector_spacing == 0x0) || (SIZEOF (.vector_23) <= (_vector_spacing << 0x5))), function at exception vector 23 too large)

.vector_24      0x9fc01500        0x8
 *(.vector_24)
 .vector_24     0x9fc01500        0x8 d:/program files - hdd/mplab compiler x32/bin/bin/../../lib/gcc/pic32mx/4.8.3/../../../../pic32mx/lib\libpic32.a(vector24.o)
                0x9fc01500                __vector_dispatch_24
                0x00000001                ASSERT (((_vector_spacing == 0x0) || (SIZEOF (.vector_24) <= (_vector_spacing << 0x5))), function at exception vector 24 too large)

.vector_25      0x9fc01520        0x8
 *(.vector_25)
 .vector_25     0x9fc01520        0x8 d:/program files - hdd/mplab compiler x32/bin/bin/../../lib/gcc/pic32mx/4.8.3/../../../../pic32mx/lib\libpic32.a(vector25.o)
                0x9fc01520                __vector_dispatch_25
                0x00000001                ASSERT (((_vector_spacing == 0x0) || (SIZEOF (.vector_25) <= (_vector_spacing << 0x5))), function at exception vector 25 too large)

.vector_26      0x9fc01540        0x8
 *(.vector_26)
 .vector_26     0x9fc01540        0x8 d:/program files - hdd/mplab compiler x32/bin/bin/../../lib/gcc/pic32mx/4.8.3/../../../../pic32mx/lib\libpic32.a(vector26.o)
                0x9fc01540                __vector_dispatch_26
                0x00000001                ASSERT (((_vector_spacing == 0x0) || (SIZEOF (.vector_26) <= (_vector_spacing << 0x5))), function at exception vector 26 too large)

.vector_27      0x9fc01560        0x8
 *(.vector_27)
 .vector_27     0x9fc01560        0x8 d:/program files - hdd/mplab compiler x32/bin/bin/../../lib/gcc/pic32mx/4.8.3/../../../../pic32mx/lib\libpic32.a(vector27.o)
                0x9fc01560                __vector_dispatch_27
                0x00000001                ASSERT (((_vector_spacing == 0x0) || (SIZEOF (.vector_27) <= (_vector_spacing << 0x5))), function at exception vector 27 too large)

.vector_28      0x9fc01580        0x8
 *(.vector_28)
 .vector_28     0x9fc01580        0x8 d:/program files - hdd/mplab compiler x32/bin/bin/../../lib/gcc/pic32mx/4.8.3/../../../../pic32mx/lib\libpic32.a(vector28.o)
                0x9fc01580                __vector_dispatch_28
                0x00000001                ASSERT (((_vector_spacing == 0x0) || (SIZEOF (.vector_28) <= (_vector_spacing << 0x5))), function at exception vector 28 too large)

.vector_29      0x9fc015a0        0x8
 *(.vector_29)
 .vector_29     0x9fc015a0        0x8 d:/program files - hdd/mplab compiler x32/bin/bin/../../lib/gcc/pic32mx/4.8.3/../../../../pic32mx/lib\libpic32.a(vector29.o)
                0x9fc015a0                __vector_dispatch_29
                0x00000001                ASSERT (((_vector_spacing == 0x0) || (SIZEOF (.vector_29) <= (_vector_spacing << 0x5))), function at exception vector 29 too large)

.vector_30      0x9fc015c0        0x8
 *(.vector_30)
 .vector_30     0x9fc015c0        0x8 d:/program files - hdd/mplab compiler x32/bin/bin/../../lib/gcc/pic32mx/4.8.3/../../../../pic32mx/lib\libpic32.a(vector30.o)
                0x9fc015c0                __vector_dispatch_30
                0x00000001                ASSERT (((_vector_spacing == 0x0) || (SIZEOF (.vector_30) <= (_vector_spacing << 0x5))), function at exception vector 30 too large)

.vector_31      0x9fc015e0        0x8
 *(.vector_31)
 .vector_31     0x9fc015e0        0x8 d:/program files - hdd/mplab compiler x32/bin/bin/../../lib/gcc/pic32mx/4.8.3/../../../../pic32mx/lib\libpic32.a(vector31.o)
                0x9fc015e0                __vector_dispatch_31
                0x00000001                ASSERT (((_vector_spacing == 0x0) || (SIZEOF (.vector_31) <= (_vector_spacing << 0x5))), function at exception vector 31 too large)

.vector_32      0x9fc01600        0x8
 *(.vector_32)
 .vector_32     0x9fc01600        0x8 d:/program files - hdd/mplab compiler x32/bin/bin/../../lib/gcc/pic32mx/4.8.3/../../../../pic32mx/lib\libpic32.a(vector32.o)
                0x9fc01600                __vector_dispatch_32
                0x00000001                ASSERT (((_vector_spacing == 0x0) || (SIZEOF (.vector_32) <= (_vector_spacing << 0x5))), function at exception vector 32 too large)

.vector_33      0x9fc01620        0x8
 *(.vector_33)
 .vector_33     0x9fc01620        0x8 build/default/production/_ext/1472/Notice.o
                0x9fc01620                __vector_dispatch_33
                0x00000001                ASSERT (((_vector_spacing == 0x0) || (SIZEOF (.vector_33) <= (_vector_spacing << 0x5))), function at exception vector 33 too large)

.vector_34      0x9fc01640        0x8
 *(.vector_34)
 .vector_34     0x9fc01640        0x8 d:/program files - hdd/mplab compiler x32/bin/bin/../../lib/gcc/pic32mx/4.8.3/../../../../pic32mx/lib\libpic32.a(vector34.o)
                0x9fc01640                __vector_dispatch_34
                0x00000001                ASSERT (((_vector_spacing == 0x0) || (SIZEOF (.vector_34) <= (_vector_spacing << 0x5))), function at exception vector 34 too large)

.vector_35      0x9fc01660        0x8
 *(.vector_35)
 .vector_35     0x9fc01660        0x8 d:/program files - hdd/mplab compiler x32/bin/bin/../../lib/gcc/pic32mx/4.8.3/../../../../pic32mx/lib\libpic32.a(vector35.o)
                0x9fc01660                __vector_dispatch_35
                0x00000001                ASSERT (((_vector_spacing == 0x0) || (SIZEOF (.vector_35) <= (_vector_spacing << 0x5))), function at exception vector 35 too large)

.vector_36      0x9fc01680        0x8
 *(.vector_36)
 .vector_36     0x9fc01680        0x8 build/default/production/_ext/1472/uart2.o
                0x9fc01680                __vector_dispatch_36
                0x00000001                ASSERT (((_vector_spacing == 0x0) || (SIZEOF (.vector_36) <= (_vector_spacing << 0x5))), function at exception vector 36 too large)

.vector_37      0x9fc016a0        0x8
 *(.vector_37)
 .vector_37     0x9fc016a0        0x8 d:/program files - hdd/mplab compiler x32/bin/bin/../../lib/gcc/pic32mx/4.8.3/../../../../pic32mx/lib\libpic32.a(vector37.o)
                0x9fc016a0                __vector_dispatch_37
                0x00000001                ASSERT (((_vector_spacing == 0x0) || (SIZEOF (.vector_37) <= (_vector_spacing << 0x5))), function at exception vector 37 too large)

.vector_38      0x9fc016c0        0x8
 *(.vector_38)
 .vector_38     0x9fc016c0        0x8 d:/program files - hdd/mplab compiler x32/bin/bin/../../lib/gcc/pic32mx/4.8.3/../../../../pic32mx/lib\libpic32.a(vector38.o)
                0x9fc016c0                __vector_dispatch_38
                0x00000001                ASSERT (((_vector_spacing == 0x0) || (SIZEOF (.vector_38) <= (_vector_spacing << 0x5))), function at exception vector 38 too large)

.vector_39      0x9fc016e0        0x8
 *(.vector_39)
 .vector_39     0x9fc016e0        0x8 d:/program files - hdd/mplab compiler x32/bin/bin/../../lib/gcc/pic32mx/4.8.3/../../../../pic32mx/lib\libpic32.a(vector39.o)
                0x9fc016e0                __vector_dispatch_39
                0x00000001                ASSERT (((_vector_spacing == 0x0) || (SIZEOF (.vector_39) <= (_vector_spacing << 0x5))), function at exception vector 39 too large)

.vector_40      0x9fc01700        0x8
 *(.vector_40)
 .vector_40     0x9fc01700        0x8 d:/program files - hdd/mplab compiler x32/bin/bin/../../lib/gcc/pic32mx/4.8.3/../../../../pic32mx/lib\libpic32.a(vector40.o)
                0x9fc01700                __vector_dispatch_40
                0x00000001                ASSERT (((_vector_spacing == 0x0) || (SIZEOF (.vector_40) <= (_vector_spacing << 0x5))), function at exception vector 40 too large)

.vector_41      0x9fc01720        0x8
 *(.vector_41)
 .vector_41     0x9fc01720        0x8 d:/program files - hdd/mplab compiler x32/bin/bin/../../lib/gcc/pic32mx/4.8.3/../../../../pic32mx/lib\libpic32.a(vector41.o)
                0x9fc01720                __vector_dispatch_41
                0x00000001                ASSERT (((_vector_spacing == 0x0) || (SIZEOF (.vector_41) <= (_vector_spacing << 0x5))), function at exception vector 41 too large)

.vector_42      0x9fc01740        0x8
 *(.vector_42)
 .vector_42     0x9fc01740        0x8 d:/program files - hdd/mplab compiler x32/bin/bin/../../lib/gcc/pic32mx/4.8.3/../../../../pic32mx/lib\libpic32.a(vector42.o)
                0x9fc01740                __vector_dispatch_42
                0x00000001                ASSERT (((_vector_spacing == 0x0) || (SIZEOF (.vector_42) <= (_vector_spacing << 0x5))), function at exception vector 42 too large)

.vector_43      0x9fc01760        0x8
 *(.vector_43)
 .vector_43     0x9fc01760        0x8 build/default/production/_ext/1472/DMA_UART2.o
                0x9fc01760                __vector_dispatch_43
                0x00000001                ASSERT (((_vector_spacing == 0x0) || (SIZEOF (.vector_43) <= (_vector_spacing << 0x5))), function at exception vector 43 too large)

.vector_44      0x9fc01780        0x8
 *(.vector_44)
 .vector_44     0x9fc01780        0x8 d:/program files - hdd/mplab compiler x32/bin/bin/../../lib/gcc/pic32mx/4.8.3/../../../../pic32mx/lib\libpic32.a(vector44.o)
                0x9fc01780                __vector_dispatch_44
                0x00000001                ASSERT (((_vector_spacing == 0x0) || (SIZEOF (.vector_44) <= (_vector_spacing << 0x5))), function at exception vector 44 too large)

.vector_45      0x9fc017a0        0x8
 *(.vector_45)
 .vector_45     0x9fc017a0        0x8 d:/program files - hdd/mplab compiler x32/bin/bin/../../lib/gcc/pic32mx/4.8.3/../../../../pic32mx/lib\libpic32.a(vector45.o)
                0x9fc017a0                __vector_dispatch_45
                0x00000001                ASSERT (((_vector_spacing == 0x0) || (SIZEOF (.vector_45) <= (_vector_spacing << 0x5))), function at exception vector 45 too large)

.vector_46      0x9fc017c0        0x0
 *(.vector_46)
                0x00000001                ASSERT (((_vector_spacing == 0x0) || (SIZEOF (.vector_46) <= (_vector_spacing << 0x5))), function at exception vector 46 too large)

.vector_47      0x9fc017e0        0x0
 *(.vector_47)
                0x00000001                ASSERT (((_vector_spacing == 0x0) || (SIZEOF (.vector_47) <= (_vector_spacing << 0x5))), function at exception vector 47 too large)

.vector_48      0x9fc01800        0x0
 *(.vector_48)
                0x00000001                ASSERT (((_vector_spacing == 0x0) || (SIZEOF (.vector_48) <= (_vector_spacing << 0x5))), function at exception vector 48 too large)

.vector_49      0x9fc01820        0x0
 *(.vector_49)
                0x00000001                ASSERT (((_vector_spacing == 0x0) || (SIZEOF (.vector_49) <= (_vector_spacing << 0x5))), function at exception vector 49 too large)

.vector_50      0x9fc01840        0x0
 *(.vector_50)
                0x00000001                ASSERT (((_vector_spacing == 0x0) || (SIZEOF (.vector_50) <= (_vector_spacing << 0x5))), function at exception vector 50 too large)

.vector_51      0x9fc01860        0x0
 *(.vector_51)
                0x00000001                ASSERT (((_vector_spacing == 0x0) || (SIZEOF (.vector_51) <= (_vector_spacing << 0x5))), function at exception vector 51 too large)

.vector_52      0x9fc01880        0x0
 *(.vector_52)
                0x00000001                ASSERT (((_vector_spacing == 0x0) || (SIZEOF (.vector_52) <= (_vector_spacing << 0x5))), function at exception vector 52 too large)

.vector_53      0x9fc018a0        0x0
 *(.vector_53)
                0x00000001                ASSERT (((_vector_spacing == 0x0) || (SIZEOF (.vector_53) <= (_vector_spacing << 0x5))), function at exception vector 53 too large)

.vector_54      0x9fc018c0        0x0
 *(.vector_54)
                0x00000001                ASSERT (((_vector_spacing == 0x0) || (SIZEOF (.vector_54) <= (_vector_spacing << 0x5))), function at exception vector 54 too large)

.vector_55      0x9fc018e0        0x0
 *(.vector_55)
                0x00000001                ASSERT (((_vector_spacing == 0x0) || (SIZEOF (.vector_55) <= (_vector_spacing << 0x5))), function at exception vector 55 too large)

.vector_56      0x9fc01900        0x0
 *(.vector_56)
                0x00000001                ASSERT (((_vector_spacing == 0x0) || (SIZEOF (.vector_56) <= (_vector_spacing << 0x5))), function at exception vector 56 too large)

.vector_57      0x9fc01920        0x0
 *(.vector_57)
                0x00000001                ASSERT (((_vector_spacing == 0x0) || (SIZEOF (.vector_57) <= (_vector_spacing << 0x5))), function at exception vector 57 too large)

.vector_58      0x9fc01940        0x0
 *(.vector_58)
                0x00000001                ASSERT (((_vector_spacing == 0x0) || (SIZEOF (.vector_58) <= (_vector_spacing << 0x5))), function at exception vector 58 too large)

.vector_59      0x9fc01960        0x0
 *(.vector_59)
                0x00000001                ASSERT (((_vector_spacing == 0x0) || (SIZEOF (.vector_59) <= (_vector_spacing << 0x5))), function at exception vector 59 too large)

.vector_60      0x9fc01980        0x0
 *(.vector_60)
                0x00000001                ASSERT (((_vector_spacing == 0x0) || (SIZEOF (.vector_60) <= (_vector_spacing << 0x5))), function at exception vector 60 too large)

.vector_61      0x9fc019a0        0x0
 *(.vector_61)
                0x00000001                ASSERT (((_vector_spacing == 0x0) || (SIZEOF (.vector_61) <= (_vector_spacing << 0x5))), function at exception vector 61 too large)

.vector_62      0x9fc019c0        0x0
 *(.vector_62)
                0x00000001                ASSERT (((_vector_spacing == 0x0) || (SIZEOF (.vector_62) <= (_vector_spacing << 0x5))), function at exception vector 62 too large)

.vector_63      0x9fc019e0        0x0
 *(.vector_63)
                0x00000001                ASSERT (((_vector_spacing == 0x0) || (SIZEOF (.vector_63) <= (_vector_spacing << 0x5))), function at exception vector 63 too large)

.startup
 *(.startup)

.text           0x9d000000        0x0
 *(.stub .gnu.linkonce.t.*)
 *(.text.*personality*)
 *(.mips16.fn.*)
 *(.mips16.call.*)
 *(.gnu.warning)
                0x9d000000                . = ALIGN (0x4)

.init           0x9d000000        0x0
 *crti.o(.init)
 *crtbegin.o(.init)
 *(EXCLUDE_FILE(*crtn.o *crtend?.o *crtend.o) .init)
 *crtend.o(.init)
 *crtn.o(.init)
                0x9d000000                . = ALIGN (0x4)

.fini           0x9d000000        0x0
 *(.fini)
                0x9d000000                . = ALIGN (0x4)

.preinit_array  0x9d000000        0x0
                0x9d000000                PROVIDE (__preinit_array_start, .)
 *(.preinit_array)
                0x9d000000                PROVIDE (__preinit_array_end, .)
                0x9d000000                . = ALIGN (0x4)

.init_array     0x9d000000        0x0
                0x9d000000                PROVIDE (__init_array_start, .)
 *(SORT(.init_array.*))
 *(.init_array)
                0x9d000000                PROVIDE (__init_array_end, .)
                0x9d000000                . = ALIGN (0x4)

.fini_array     0x9d000000        0x0
                0x9d000000                PROVIDE (__fini_array_start, .)
 *(SORT(.fini_array.*))
 *(.fini_array)
                0x9d000000                PROVIDE (__fini_array_end, .)
                0x9d000000                . = ALIGN (0x4)

.ctors          0x9d000000        0x0
 *crtbegin.o(.ctors)
 *crtbegin?.o(.ctors)
 *(EXCLUDE_FILE(*crtend?.o *crtend.o) .ctors)
 *(SORT(.ctors.*))
 *(.ctors)
                0x9d000000                . = ALIGN (0x4)

.dtors          0x9d000000        0x0
 *crtbegin.o(.dtors)
 *crtbegin?.o(.dtors)
 *(EXCLUDE_FILE(*crtend?.o *crtend.o) .dtors)
 *(SORT(.dtors.*))
 *(.dtors)
                0x9d000000                . = ALIGN (0x4)

.rodata         0x9d000000        0x0
 *(.gnu.linkonce.r.*)
 *(.rodata1)
                0x9d000000                . = ALIGN (0x4)

.sdata2         0x9fc00490        0x0
 *(.sdata2 .sdata2.* .gnu.linkonce.s2.*)
                0x9fc00490                . = ALIGN (0x4)

.sbss2          0x9fc00490        0x0
 *(.sbss2 .sbss2.* .gnu.linkonce.sb2.*)
                0x9fc00490                . = ALIGN (0x4)

.eh_frame_hdr
 *(.eh_frame_hdr)
                0x9fc00490                . = ALIGN (0x4)

.eh_frame
 *(.eh_frame)
                0x9fc00490                . = ALIGN (0x4)

.gcc_except_table
 *(.gcc_except_table .gcc_except_table.*)
                0x9fc00490                . = ALIGN (0x4)

.dbg_data       0xa0000000        0x0
                0xa0000000                . = (. + DEFINED (_DEBUGGER)?0x200:0x0)

.jcr            0xa0000000        0x0
 *(.jcr)
                0xa0000000                . = ALIGN (0x4)

.eh_frame
 *(.eh_frame)
                0xa0000000                . = ALIGN (0x4)

.gcc_except_table
 *(.gcc_except_table .gcc_except_table.*)
                0xa0000000                . = ALIGN (0x4)

.persist        0xa0000000        0x0
                0xa0000000                _persist_begin = .
 *(.persist .persist.*)
 *(.pbss .pbss.*)
                0xa0000000                . = ALIGN (0x4)
                0xa0000000                _persist_end = .

.data           0xa0000000        0x0
 *(.gnu.linkonce.d.*)
 *(.data1)
                0xa0000000                . = ALIGN (0x4)
                0xa0000000                . = .
                0xa0007ff0                _gp = (ALIGN (0x10) + 0x7ff0)

.got            0xa0000000        0x0
 *(.got.plt)
 *(.got)
                0xa0000000                . = ALIGN (0x4)

.sdata          0xa0000000       0x28
                0xa0000000                _sdata_begin = .
 *(.sdata .sdata.* .gnu.linkonce.s.*)
 .sdata         0xa0000000        0x8 build/default/production/_ext/1472/hardware.o
 .sdata         0xa0000008        0x4 build/default/production/_ext/1472/led7.o
 .sdata         0xa000000c        0x4 build/default/production/_ext/1472/uart2.o
 .sdata         0xa0000010        0x4 build/default/production/_ext/1472/uart4.o
 .sdata         0xa0000014        0xc build/default/production/_ext/1472/RC.o
                0xa0000014                RC1Pos
 .sdata         0xa0000020        0x4 build/default/production/_ext/1472/DMA_UART2.o
                0xa0000020                dmaChn
 .sdata         0xa0000024        0x4 d:/program files - hdd/mplab compiler x32/bin/bin/../../lib/gcc/pic32mx/4.8.3/../../../../pic32mx/lib\libpic32.a(xc32_uart.o)
                0xa0000024                __XC_UART
                0xa0000028                . = ALIGN (0x4)
                0xa0000028                _sdata_end = .

.lit8
 *(.lit8)

.lit4
 *(.lit4)
                0xa0000028                . = ALIGN (0x4)
                0xa0000028                _data_end = .
                0xa0000028                _bss_begin = .

.sbss           0xa0000028       0xb8
                0xa0000028                _sbss_begin = .
 *(.dynsbss)
 *(.sbss .sbss.* .gnu.linkonce.sb.*)
 .sbss          0xa0000028        0x4 build/default/production/_ext/1472/hardware.o
                0xa0000028                millisec
 .sbss          0xa000002c        0xc build/default/production/_ext/1472/led7.o
                0xa000002c                led_value
                0xa0000030                led_flag
 .sbss          0xa0000038        0x8 build/default/production/_ext/1472/main.o
                0xa000003c                gps_message
 .sbss          0xa0000040        0xc build/default/production/_ext/1472/swDelay.o
 .sbss          0xa000004c        0xc build/default/production/_ext/1472/uart2.o
 .sbss          0xa0000058        0xc build/default/production/_ext/1472/uart4.o
 .sbss          0xa0000064       0x14 build/default/production/_ext/1472/RC.o
 .sbss          0xa0000078        0xc build/default/production/_ext/1472/GPS_I2C.o
 .sbss          0xa0000084        0x8 build/default/production/_ext/1472/Gamepad.o
 .sbss          0xa000008c        0x8 build/default/production/_ext/1472/ADC_TEMP.o
 .sbss          0xa0000094        0x8 build/default/production/_ext/1472/Notice.o
                0xa0000094                Status1
                0xa0000098                Status2
 .sbss          0xa000009c        0x4 build/default/production/_ext/1472/DMA_UART2.o
                0xa000009c                DmaIntFlag
 .sbss          0xa00000a0       0x20 build/default/production/_ext/1472/MAG3110.o
 .sbss          0xa00000c0        0x4 build/default/production/_ext/1472/Stepper.o
 *(.scommon)
 .scommon       0xa00000c4        0x0 build/default/production/_ext/1472/LCDlib.o
 .scommon       0xa00000c4        0x0 build/default/production/_ext/1472/led7.o
 .scommon       0xa00000c4        0x8 build/default/production/_ext/1472/main.o
                0xa00000c4                calibrated
                0xa00000c8                error
 .scommon       0xa00000cc        0x0 build/default/production/_ext/1472/swDelay.o
 .scommon       0xa00000cc        0x0 build/default/production/_ext/1472/uart2.o
 .scommon       0xa00000cc        0x0 build/default/production/_ext/1472/uart4.o
 .scommon       0xa00000cc        0x0 build/default/production/_ext/1472/RC.o
 .scommon       0xa00000cc        0x0 build/default/production/_ext/1472/Pot.o
 .scommon       0xa00000cc        0x0 build/default/production/_ext/1472/GPS_I2C.o
 .scommon       0xa00000cc        0x0 build/default/production/_ext/1472/i2c_lib.o
 .scommon       0xa00000cc        0x0 build/default/production/_ext/1472/Gamepad.o
 .scommon       0xa00000cc        0x0 build/default/production/_ext/1472/ADC_TEMP.o
 .scommon       0xa00000cc        0x0 build/default/production/_ext/1472/Notice.o
 .scommon       0xa00000cc        0x0 build/default/production/_ext/1472/DMA_UART2.o
 .scommon       0xa00000cc        0x6 build/default/production/_ext/1472/MAG3110.o
                0xa00000cc                x
                0xa00000ce                z
                0xa00000d0                y
 *fill*         0xa00000d2        0x2 
 .scommon       0xa00000d4        0xc build/default/production/_ext/1472/Stepper.o
                0xa00000d4                deg
                0xa00000d8                angle
                0xa00000dc                smPos
                0xa00000e0                _sbss_end = .
                0xa00000e0                . = ALIGN (0x4)

.bss            0xa00000e0      0x358
 *(.dynbss)
 *(COMMON)
 COMMON         0xa00000e0       0x2c build/default/production/_ext/1472/main.o
                0xa00000e0                gps
 COMMON         0xa000010c       0x20 build/default/production/_ext/1472/RC.o
                0xa000010c                rc
                0xa000011c                rc_set
 COMMON         0xa000012c      0x309 build/default/production/_ext/1472/DMA_UART2.o
                0xa000012c                dmaBuff
                0xa0000230                dmaBuff1
                0xa0000334                dmaBuff2
                0xa0000438                . = ALIGN ((. != 0x0)?0x4:0x1)
 *fill*         0xa0000435        0x3 
                0xa0000438                . = ALIGN (0x4)
                0xa0000438                _end = .
                0xa0000438                _bss_end = .
                0x00020000                _bmxdudba_address = 0x20000
                0x00020000                _bmxdupba_address = 0x20000

/DISCARD/
 *(.pdr)
 *(.rel.dyn)
 *(.note.GNU-stack)
 *(.note.GNU-stack)
 *(.gnu_debuglink)
 *(.gnu.lto_*)
 *(.discard)

.gptab.sdata
 *(.gptab.data)
 *(.gptab.sdata)

.gptab.sbss
 *(.gptab.bss)
 *(.gptab.sbss)

.mdebug.abi32   0xa0000438        0x0
 *(.mdebug.abi32)
 .mdebug.abi32  0xa0000438        0x0 build/default/production/_ext/1472/LCDlib.o
 .mdebug.abi32  0xa0000438        0x0 build/default/production/_ext/1472/hardware.o
 .mdebug.abi32  0xa0000438        0x0 build/default/production/_ext/1472/led7.o
 .mdebug.abi32  0xa0000438        0x0 build/default/production/_ext/1472/main.o
 .mdebug.abi32  0xa0000438        0x0 build/default/production/_ext/1472/swDelay.o
 .mdebug.abi32  0xa0000438        0x0 build/default/production/_ext/1472/uart2.o
 .mdebug.abi32  0xa0000438        0x0 build/default/production/_ext/1472/uart4.o
 .mdebug.abi32  0xa0000438        0x0 build/default/production/_ext/1472/RC.o
 .mdebug.abi32  0xa0000438        0x0 build/default/production/_ext/1472/Pot.o
 .mdebug.abi32  0xa0000438        0x0 build/default/production/_ext/1472/GPS_I2C.o
 .mdebug.abi32  0xa0000438        0x0 build/default/production/_ext/1472/i2c_lib.o
 .mdebug.abi32  0xa0000438        0x0 build/default/production/_ext/1472/Gamepad.o
 .mdebug.abi32  0xa0000438        0x0 build/default/production/_ext/1472/ADC_TEMP.o
 .mdebug.abi32  0xa0000438        0x0 build/default/production/_ext/1472/CycleData.o
 .mdebug.abi32  0xa0000438        0x0 build/default/production/_ext/1472/Notice.o
 .mdebug.abi32  0xa0000438        0x0 build/default/production/_ext/1472/DMA_UART2.o
 .mdebug.abi32  0xa0000438        0x0 build/default/production/_ext/1472/MAG3110.o
 .mdebug.abi32  0xa0000438        0x0 build/default/production/_ext/1472/Stepper.o
 .mdebug.abi32  0xa0000438        0x0 d:/program files - hdd/mplab compiler x32/bin/bin/../../lib/gcc/pic32mx/4.8.3/../../../../pic32mx/lib\libmchp_peripheral.a(read_core_timer_lib.o)
 .mdebug.abi32  0xa0000438        0x0 d:/program files - hdd/mplab compiler x32/bin/bin/../../lib/gcc/pic32mx/4.8.3/../../../../pic32mx/lib\libmchp_peripheral_32MX370F512L.a(pcache.o)
 .mdebug.abi32  0xa0000438        0x0 d:/program files - hdd/mplab compiler x32/bin/bin/../../lib/gcc/pic32mx/4.8.3/../../../../pic32mx/lib\libmchp_peripheral_32MX370F512L.a(int_configure_system_lib.o)
 .mdebug.abi32  0xa0000438        0x0 d:/program files - hdd/mplab compiler x32/bin/bin/../../lib/gcc/pic32mx/4.8.3/../../../../pic32mx/lib\libmchp_peripheral_32MX370F512L.a(int_enable_interrupts_lib.o)
 .mdebug.abi32  0xa0000438        0x0 d:/program files - hdd/mplab compiler x32/bin/bin/../../lib/gcc/pic32mx/4.8.3/../../../../pic32mx/lib\libmchp_peripheral_32MX370F512L.a(int_disable_interrupts_lib.o)
 .mdebug.abi32  0xa0000438        0x0 d:/program files - hdd/mplab compiler x32/bin/bin/../../lib/gcc/pic32mx/4.8.3/../../../../pic32mx/lib\libmchp_peripheral_32MX370F512L.a(int_restore_interrupts_lib.o)
 .mdebug.abi32  0xa0000438        0x0 d:/program files - hdd/mplab compiler x32/bin/bin/../../lib/gcc/pic32mx/4.8.3/../../../../pic32mx/lib\libmchp_peripheral_32MX370F512L.a(int_tbl_lib.o)
 .mdebug.abi32  0xa0000438        0x0 d:/program files - hdd/mplab compiler x32/bin/bin/../../lib/gcc/pic32mx/4.8.3/../../../../pic32mx/lib\libmchp_peripheral_32MX370F512L.a(dma_chn_set_ev_enable_flags_lib.o)
 .mdebug.abi32  0xa0000438        0x0 d:/program files - hdd/mplab compiler x32/bin/bin/../../lib/gcc/pic32mx/4.8.3/../../../../pic32mx/lib\libmchp_peripheral_32MX370F512L.a(dma_chn_open_lib.o)
 .mdebug.abi32  0xa0000438        0x0 d:/program files - hdd/mplab compiler x32/bin/bin/../../lib/gcc/pic32mx/4.8.3/../../../../pic32mx/lib\libmchp_peripheral_32MX370F512L.a(dma_chn_enable_lib.o)
 .mdebug.abi32  0xa0000438        0x0 d:/program files - hdd/mplab compiler x32/bin/bin/../../lib/gcc/pic32mx/4.8.3/../../../../pic32mx/lib\libmchp_peripheral_32MX370F512L.a(dma_chn_get_ev_flags_lib.o)
 .mdebug.abi32  0xa0000438        0x0 d:/program files - hdd/mplab compiler x32/bin/bin/../../lib/gcc/pic32mx/4.8.3/../../../../pic32mx/lib\libmchp_peripheral_32MX370F512L.a(dma_chn_write_event_control_flags_lib.o)
 .mdebug.abi32  0xa0000438        0x0 d:/program files - hdd/mplab compiler x32/bin/bin/../../lib/gcc/pic32mx/4.8.3/../../../../pic32mx/lib\libmchp_peripheral_32MX370F512L.a(dma_chn_set_match_pattern_lib.o)
 .mdebug.abi32  0xa0000438        0x0 d:/program files - hdd/mplab compiler x32/bin/bin/../../lib/gcc/pic32mx/4.8.3/../../../../pic32mx/lib\libmchp_peripheral_32MX370F512L.a(dma_chn_set_txfer_lib.o)
 .mdebug.abi32  0xa0000438        0x0 d:/program files - hdd/mplab compiler x32/bin/bin/../../lib/gcc/pic32mx/4.8.3/../../../../pic32mx/lib\libmchp_peripheral_32MX370F512L.a(dma_reg_map_tbl_lib.o)
 .mdebug.abi32  0xa0000438        0x0 d:/program files - hdd/mplab compiler x32/bin/bin/../../lib/gcc/pic32mx/4.8.3/../../../../pic32mx/lib\libmchp_peripheral_32MX370F512L.a(port_set_pins_digital_in_lib.o)
 .mdebug.abi32  0xa0000438        0x0 d:/program files - hdd/mplab compiler x32/bin/bin/../../lib/gcc/pic32mx/4.8.3/../../../../pic32mx/lib\libmchp_peripheral_32MX370F512L.a(port_set_pins_digital_out_lib.o)
 .mdebug.abi32  0xa0000438        0x0 d:/program files - hdd/mplab compiler x32/bin/bin/../../lib/gcc/pic32mx/4.8.3/../../../../pic32mx/lib\libmchp_peripheral_32MX370F512L.a(_ports_tbl_libp.o)
 .mdebug.abi32  0xa0000438        0x0 d:/program files - hdd/mplab compiler x32/bin/bin/../../lib/gcc/pic32mx/4.8.3/../../../../pic32mx/lib\libmchp_peripheral_32MX370F512L.a(uart_lib.o)
 .mdebug.abi32  0xa0000438        0x0 d:/program files - hdd/mplab compiler x32/bin/bin/../../lib/gcc/pic32mx/4.8.3/../../../../pic32mx/lib\libmchp_peripheral_32MX370F512L.a(I2CAcknowledgeByte.o)
 .mdebug.abi32  0xa0000438        0x0 d:/program files - hdd/mplab compiler x32/bin/bin/../../lib/gcc/pic32mx/4.8.3/../../../../pic32mx/lib\libmchp_peripheral_32MX370F512L.a(I2CAcknowledgeHasCompleted.o)
 .mdebug.abi32  0xa0000438        0x0 d:/program files - hdd/mplab compiler x32/bin/bin/../../lib/gcc/pic32mx/4.8.3/../../../../pic32mx/lib\libmchp_peripheral_32MX370F512L.a(I2CBusIsIdle.o)
 .mdebug.abi32  0xa0000438        0x0 d:/program files - hdd/mplab compiler x32/bin/bin/../../lib/gcc/pic32mx/4.8.3/../../../../pic32mx/lib\libmchp_peripheral_32MX370F512L.a(I2CByteWasAcknowledged.o)
 .mdebug.abi32  0xa0000438        0x0 d:/program files - hdd/mplab compiler x32/bin/bin/../../lib/gcc/pic32mx/4.8.3/../../../../pic32mx/lib\libmchp_peripheral_32MX370F512L.a(I2CEnable.o)
 .mdebug.abi32  0xa0000438        0x0 d:/program files - hdd/mplab compiler x32/bin/bin/../../lib/gcc/pic32mx/4.8.3/../../../../pic32mx/lib\libmchp_peripheral_32MX370F512L.a(I2CGetByte.o)
 .mdebug.abi32  0xa0000438        0x0 d:/program files - hdd/mplab compiler x32/bin/bin/../../lib/gcc/pic32mx/4.8.3/../../../../pic32mx/lib\libmchp_peripheral_32MX370F512L.a(I2CGetStatus.o)
 .mdebug.abi32  0xa0000438        0x0 d:/program files - hdd/mplab compiler x32/bin/bin/../../lib/gcc/pic32mx/4.8.3/../../../../pic32mx/lib\libmchp_peripheral_32MX370F512L.a(I2CReceivedDataIsAvailable.o)
 .mdebug.abi32  0xa0000438        0x0 d:/program files - hdd/mplab compiler x32/bin/bin/../../lib/gcc/pic32mx/4.8.3/../../../../pic32mx/lib\libmchp_peripheral_32MX370F512L.a(I2CReceiverEnable.o)
 .mdebug.abi32  0xa0000438        0x0 d:/program files - hdd/mplab compiler x32/bin/bin/../../lib/gcc/pic32mx/4.8.3/../../../../pic32mx/lib\libmchp_peripheral_32MX370F512L.a(I2CRepeatStart.o)
 .mdebug.abi32  0xa0000438        0x0 d:/program files - hdd/mplab compiler x32/bin/bin/../../lib/gcc/pic32mx/4.8.3/../../../../pic32mx/lib\libmchp_peripheral_32MX370F512L.a(I2CSendByte.o)
 .mdebug.abi32  0xa0000438        0x0 d:/program files - hdd/mplab compiler x32/bin/bin/../../lib/gcc/pic32mx/4.8.3/../../../../pic32mx/lib\libmchp_peripheral_32MX370F512L.a(I2CSetFrequency.o)
 .mdebug.abi32  0xa0000438        0x0 d:/program files - hdd/mplab compiler x32/bin/bin/../../lib/gcc/pic32mx/4.8.3/../../../../pic32mx/lib\libmchp_peripheral_32MX370F512L.a(I2CStart.o)
 .mdebug.abi32  0xa0000438        0x0 d:/program files - hdd/mplab compiler x32/bin/bin/../../lib/gcc/pic32mx/4.8.3/../../../../pic32mx/lib\libmchp_peripheral_32MX370F512L.a(I2CStop.o)
 .mdebug.abi32  0xa0000438        0x0 d:/program files - hdd/mplab compiler x32/bin/bin/../../lib/gcc/pic32mx/4.8.3/../../../../pic32mx/lib\libmchp_peripheral_32MX370F512L.a(I2CTransmissionHasCompleted.o)
 .mdebug.abi32  0xa0000438        0x0 d:/program files - hdd/mplab compiler x32/bin/bin/../../lib/gcc/pic32mx/4.8.3/../../../../pic32mx/lib\libmchp_peripheral_32MX370F512L.a(I2CTransmitterIsReady.o)
 .mdebug.abi32  0xa0000438        0x0 d:/program files - hdd/mplab compiler x32/bin/bin/../../lib/gcc/pic32mx/4.8.3/../../../../pic32mx/lib\libmchp_peripheral_32MX370F512L.a(I2CPrivate.o)
 .mdebug.abi32  0xa0000438        0x0 d:/program files - hdd/mplab compiler x32/bin/bin/../../lib/gcc/pic32mx/4.8.3/../../../../pic32mx/lib\libpic32.a(default-bootstrap-exception-handler.o)
 .mdebug.abi32  0xa0000438        0x0 d:/program files - hdd/mplab compiler x32/bin/bin/../../lib/gcc/pic32mx/4.8.3/../../../../pic32mx/lib\libpic32.a(default-on-reset.o)
 .mdebug.abi32  0xa0000438        0x0 d:/program files - hdd/mplab compiler x32/bin/bin/../../lib/gcc/pic32mx/4.8.3/../../../../pic32mx/lib\libpic32.a(default-on-bootstrap.o)
 .mdebug.abi32  0xa0000438        0x0 d:/program files - hdd/mplab compiler x32/bin/bin/../../lib/gcc/pic32mx/4.8.3/../../../../pic32mx/lib\libpic32.a(default-general-exception-handler.o)
 .mdebug.abi32  0xa0000438        0x0 d:/program files - hdd/mplab compiler x32/bin/bin/../../lib/gcc/pic32mx/4.8.3/../../../../pic32mx/lib\libpic32.a(defaultinterrupt.o)
 .mdebug.abi32  0xa0000438        0x0 d:/program files - hdd/mplab compiler x32/bin/bin/../../lib/gcc/pic32mx/4.8.3/../../../../pic32mx/lib\libc.a(ctype.o)
 .mdebug.abi32  0xa0000438        0x0 d:/program files - hdd/mplab compiler x32/bin/bin/../../lib/gcc/pic32mx/4.8.3/../../../../pic32mx/lib\libc.a(puts.o)
 .mdebug.abi32  0xa0000438        0x0 d:/program files - hdd/mplab compiler x32/bin/bin/../../lib/gcc/pic32mx/4.8.3/../../../../pic32mx/lib\libc.a(strchr.o)
 .mdebug.abi32  0xa0000438        0x0 d:/program files - hdd/mplab compiler x32/bin/bin/../../lib/gcc/pic32mx/4.8.3/../../../../pic32mx/lib\libc.a(strstr.o)
 .mdebug.abi32  0xa0000438        0x0 d:/program files - hdd/mplab compiler x32/bin/bin/../../lib/gcc/pic32mx/4.8.3/../../../../pic32mx/lib\libc.a(strtol.o)
 .mdebug.abi32  0xa0000438        0x0 d:/program files - hdd/mplab compiler x32/bin/bin/../../lib/gcc/pic32mx/4.8.3/../../../../pic32mx/lib\libc.a(printf_cdfFnopsuxX.eo)
 .mdebug.abi32  0xa0000438        0x0 d:/program files - hdd/mplab compiler x32/bin/bin/../../lib/gcc/pic32mx/4.8.3/../../../../pic32mx/lib\libc.a(sprintf_cdnopuxX.eo)
 .mdebug.abi32  0xa0000438        0x0 d:/program files - hdd/mplab compiler x32/bin/bin/../../lib/gcc/pic32mx/4.8.3/../../../../pic32mx/lib\libc.a(sscanf_cdfFnopuxX.eo)
 .mdebug.abi32  0xa0000438        0x0 d:/program files - hdd/mplab compiler x32/bin/bin/../../lib/gcc/pic32mx/4.8.3/../../../../pic32mx/lib\libc.a(_iob.o)
 .mdebug.abi32  0xa0000438        0x0 d:/program files - hdd/mplab compiler x32/bin/bin/../../lib/gcc/pic32mx/4.8.3/../../../../pic32mx/lib\libc.a(_fputc_simple.o)
 .mdebug.abi32  0xa0000438        0x0 d:/program files - hdd/mplab compiler x32/bin/bin/../../lib/gcc/pic32mx/4.8.3/../../../../pic32mx/lib\libc.a(ctypef.o)
 .mdebug.abi32  0xa0000438        0x0 d:/program files - hdd/mplab compiler x32/bin/bin/../../lib/gcc/pic32mx/4.8.3/../../../../pic32mx/lib\libc.a(errno.o)
 .mdebug.abi32  0xa0000438        0x0 d:/program files - hdd/mplab compiler x32/bin/bin/../../lib/gcc/pic32mx/4.8.3/../../../../pic32mx/lib\libc.a(strncmp.o)
 .mdebug.abi32  0xa0000438        0x0 d:/program files - hdd/mplab compiler x32/bin/bin/../../lib/gcc/pic32mx/4.8.3/../../../../pic32mx/lib\libc.a(doprnt_cdfFnopsuxX.eo)
 .mdebug.abi32  0xa0000438        0x0 d:/program files - hdd/mplab compiler x32/bin/bin/../../lib/gcc/pic32mx/4.8.3/../../../../pic32mx/lib\libc.a(doscan_cdfFnopuxX.eo)
 .mdebug.abi32  0xa0000438        0x0 d:/program files - hdd/mplab compiler x32/bin/bin/../../lib/gcc/pic32mx/4.8.3/../../../../pic32mx/lib\libc.a(_flsbuf_simple.o)
 .mdebug.abi32  0xa0000438        0x0 d:/program files - hdd/mplab compiler x32/bin/bin/../../lib/gcc/pic32mx/4.8.3/../../../../pic32mx/lib\libc.a(fgetc.o)
 .mdebug.abi32  0xa0000438        0x0 d:/program files - hdd/mplab compiler x32/bin/bin/../../lib/gcc/pic32mx/4.8.3/../../../../pic32mx/lib\libc.a(atoi.o)
 .mdebug.abi32  0xa0000438        0x0 d:/program files - hdd/mplab compiler x32/bin/bin/../../lib/gcc/pic32mx/4.8.3/../../../../pic32mx/lib\libc.a(ldpowers.o)
 .mdebug.abi32  0xa0000438        0x0 d:/program files - hdd/mplab compiler x32/bin/bin/../../lib/gcc/pic32mx/4.8.3/../../../../pic32mx/lib\libc.a(strtod.o)
 .mdebug.abi32  0xa0000438        0x0 d:/program files - hdd/mplab compiler x32/bin/bin/../../lib/gcc/pic32mx/4.8.3/../../../../pic32mx/lib\libc.a(strtof.o)
 .mdebug.abi32  0xa0000438        0x0 d:/program files - hdd/mplab compiler x32/bin/bin/../../lib/gcc/pic32mx/4.8.3/../../../../pic32mx/lib\libc.a(ungetc.o)
 .mdebug.abi32  0xa0000438        0x0 d:/program files - hdd/mplab compiler x32/bin/bin/../../lib/gcc/pic32mx/4.8.3/../../../../pic32mx/lib\libc.a(filbuf.o)
 .mdebug.abi32  0xa0000438        0x0 d:/program files - hdd/mplab compiler x32/bin/bin/../../lib/gcc/pic32mx/4.8.3/../../../../pic32mx/lib\libc.a(fflush.o)
 .mdebug.abi32  0xa0000438        0x0 d:/program files - hdd/mplab compiler x32/bin/bin/../../lib/gcc/pic32mx/4.8.3/../../../../pic32mx/lib\libm.a(w_atan2f.o)
 .mdebug.abi32  0xa0000438        0x0 d:/program files - hdd/mplab compiler x32/bin/bin/../../lib/gcc/pic32mx/4.8.3/../../../../pic32mx/lib\libm.a(__strtod.o)
 .mdebug.abi32  0xa0000438        0x0 d:/program files - hdd/mplab compiler x32/bin/bin/../../lib/gcc/pic32mx/4.8.3/../../../../pic32mx/lib\libm.a(__strtof.o)
 .mdebug.abi32  0xa0000438        0x0 d:/program files - hdd/mplab compiler x32/bin/bin/../../lib/gcc/pic32mx/4.8.3/../../../../pic32mx/lib\libm.a(support.o)
 .mdebug.abi32  0xa0000438        0x0 d:/program files - hdd/mplab compiler x32/bin/bin/../../lib/gcc/pic32mx/4.8.3/../../../../pic32mx/lib\libe.a(_fixunsdfdi.o)
 .mdebug.abi32  0xa0000438        0x0 d:/program files - hdd/mplab compiler x32/bin/bin/../../lib/gcc/pic32mx/4.8.3/../../../../pic32mx/lib\libe.a(_orderdf2.o)
 .mdebug.abi32  0xa0000438        0x0 d:/program files - hdd/mplab compiler x32/bin/bin/../../lib/gcc/pic32mx/4.8.3/../../../../pic32mx/lib\libe.a(_ldexp.o)
 .mdebug.abi32  0xa0000438        0x0 d:/program files - hdd/mplab compiler x32/bin/bin/../../lib/gcc/pic32mx/4.8.3/../../../../pic32mx/lib\libe.a(_ldexpf.o)
 .mdebug.abi32  0xa0000438        0x0 d:/program files - hdd/mplab compiler x32/bin/bin/../../lib/gcc/pic32mx/4.8.3/../../../../pic32mx/lib\libe.a(_fixdfdi.o)
 .mdebug.abi32  0xa0000438        0x0 d:/program files - hdd/mplab compiler x32/bin/bin/../../lib/gcc/pic32mx/4.8.3\libgcc.a(_lshrdi3.o)
 .mdebug.abi32  0xa0000438        0x0 d:/program files - hdd/mplab compiler x32/bin/bin/../../lib/gcc/pic32mx/4.8.3\libgcc.a(_ashldi3.o)
 .mdebug.abi32  0xa0000438        0x0 d:/program files - hdd/mplab compiler x32/bin/bin/../../lib/gcc/pic32mx/4.8.3\libgcc.a(_floatundidf.o)
 .mdebug.abi32  0xa0000438        0x0 d:/program files - hdd/mplab compiler x32/bin/bin/../../lib/gcc/pic32mx/4.8.3\libgcc.a(_udivdi3.o)
 .mdebug.abi32  0xa0000438        0x0 d:/program files - hdd/mplab compiler x32/bin/bin/../../lib/gcc/pic32mx/4.8.3\libgcc.a(_umoddi3.o)
 .mdebug.abi32  0xa0000438        0x0 d:/program files - hdd/mplab compiler x32/bin/bin/../../lib/gcc/pic32mx/4.8.3\libgcc.a(floatunsidf.o)
 .mdebug.abi32  0xa0000438        0x0 d:/program files - hdd/mplab compiler x32/bin/bin/../../lib/gcc/pic32mx/4.8.3/../../../../pic32mx/lib\libpic32.a(read.o)
 .mdebug.abi32  0xa0000438        0x0 d:/program files - hdd/mplab compiler x32/bin/bin/../../lib/gcc/pic32mx/4.8.3/../../../../pic32mx/lib\libpic32.a(write.o)
 .mdebug.abi32  0xa0000438        0x0 d:/program files - hdd/mplab compiler x32/bin/bin/../../lib/gcc/pic32mx/4.8.3/../../../../pic32mx/lib\libpic32.a(xc32_uart.o)

.mdebug.abiN32
 *(.mdebug.abiN32)

.mdebug.abi64
 *(.mdebug.abi64)

.mdebug.abiO64
 *(.mdebug.abiO64)

.mdebug.eabi32
 *(.mdebug.eabi32)

.mdebug.eabi64
 *(.mdebug.eabi64)

.gcc_compiled_long32
 *(.gcc_compiled_long32)

.gcc_compiled_long64
 *(.gcc_compiled_long64)

.stab
 *(.stab)

.stabstr
 *(.stabstr)

.stab.excl
 *(.stab.excl)

.stab.exclstr
 *(.stab.exclstr)

.stab.index
 *(.stab.index)

.stab.indexstr
 *(.stab.indexstr)

.comment        0x00000000      0x3c4
 *(.comment)
 .comment       0x00000000       0x3c build/default/production/_ext/1472/LCDlib.o
                                 0x3d (size before relaxing)
 .comment       0x00000000       0x3d build/default/production/_ext/1472/hardware.o
 .comment       0x00000000       0x3d build/default/production/_ext/1472/led7.o
 .comment       0x00000000       0x3d build/default/production/_ext/1472/main.o
 .comment       0x00000000       0x3d build/default/production/_ext/1472/swDelay.o
 .comment       0x00000000       0x3d build/default/production/_ext/1472/uart2.o
 .comment       0x00000000       0x3d build/default/production/_ext/1472/uart4.o
 .comment       0x00000000       0x3d build/default/production/_ext/1472/RC.o
 .comment       0x00000000       0x3d build/default/production/_ext/1472/Pot.o
 .comment       0x00000000       0x3d build/default/production/_ext/1472/GPS_I2C.o
 .comment       0x00000000       0x3d build/default/production/_ext/1472/i2c_lib.o
 .comment       0x00000000       0x3d build/default/production/_ext/1472/Gamepad.o
 .comment       0x00000000       0x3d build/default/production/_ext/1472/ADC_TEMP.o
 .comment       0x00000000       0x3d build/default/production/_ext/1472/CycleData.o
 .comment       0x00000000       0x3d build/default/production/_ext/1472/Notice.o
 .comment       0x00000000       0x3d build/default/production/_ext/1472/DMA_UART2.o
 .comment       0x00000000       0x3d build/default/production/_ext/1472/MAG3110.o
 .comment       0x00000000       0x3d build/default/production/_ext/1472/Stepper.o
 .comment       0x0000003c       0x3c d:/program files - hdd/mplab compiler x32/bin/bin/../../lib/gcc/pic32mx/4.8.3/../../../../pic32mx/lib\libmchp_peripheral.a(read_core_timer_lib.o)
                                 0x3d (size before relaxing)
 .comment       0x00000000       0x3d d:/program files - hdd/mplab compiler x32/bin/bin/../../lib/gcc/pic32mx/4.8.3/../../../../pic32mx/lib\libmchp_peripheral_32MX370F512L.a(pcache.o)
 .comment       0x00000000       0x3d d:/program files - hdd/mplab compiler x32/bin/bin/../../lib/gcc/pic32mx/4.8.3/../../../../pic32mx/lib\libmchp_peripheral_32MX370F512L.a(int_configure_system_lib.o)
 .comment       0x00000000       0x3d d:/program files - hdd/mplab compiler x32/bin/bin/../../lib/gcc/pic32mx/4.8.3/../../../../pic32mx/lib\libmchp_peripheral_32MX370F512L.a(int_enable_interrupts_lib.o)
 .comment       0x00000000       0x3d d:/program files - hdd/mplab compiler x32/bin/bin/../../lib/gcc/pic32mx/4.8.3/../../../../pic32mx/lib\libmchp_peripheral_32MX370F512L.a(int_disable_interrupts_lib.o)
 .comment       0x00000000       0x3d d:/program files - hdd/mplab compiler x32/bin/bin/../../lib/gcc/pic32mx/4.8.3/../../../../pic32mx/lib\libmchp_peripheral_32MX370F512L.a(int_restore_interrupts_lib.o)
 .comment       0x00000000       0x3d d:/program files - hdd/mplab compiler x32/bin/bin/../../lib/gcc/pic32mx/4.8.3/../../../../pic32mx/lib\libmchp_peripheral_32MX370F512L.a(int_tbl_lib.o)
 .comment       0x00000000       0x3d d:/program files - hdd/mplab compiler x32/bin/bin/../../lib/gcc/pic32mx/4.8.3/../../../../pic32mx/lib\libmchp_peripheral_32MX370F512L.a(dma_chn_set_ev_enable_flags_lib.o)
 .comment       0x00000000       0x3d d:/program files - hdd/mplab compiler x32/bin/bin/../../lib/gcc/pic32mx/4.8.3/../../../../pic32mx/lib\libmchp_peripheral_32MX370F512L.a(dma_chn_open_lib.o)
 .comment       0x00000000       0x3d d:/program files - hdd/mplab compiler x32/bin/bin/../../lib/gcc/pic32mx/4.8.3/../../../../pic32mx/lib\libmchp_peripheral_32MX370F512L.a(dma_chn_enable_lib.o)
 .comment       0x00000000       0x3d d:/program files - hdd/mplab compiler x32/bin/bin/../../lib/gcc/pic32mx/4.8.3/../../../../pic32mx/lib\libmchp_peripheral_32MX370F512L.a(dma_chn_get_ev_flags_lib.o)
 .comment       0x00000000       0x3d d:/program files - hdd/mplab compiler x32/bin/bin/../../lib/gcc/pic32mx/4.8.3/../../../../pic32mx/lib\libmchp_peripheral_32MX370F512L.a(dma_chn_write_event_control_flags_lib.o)
 .comment       0x00000000       0x3d d:/program files - hdd/mplab compiler x32/bin/bin/../../lib/gcc/pic32mx/4.8.3/../../../../pic32mx/lib\libmchp_peripheral_32MX370F512L.a(dma_chn_set_match_pattern_lib.o)
 .comment       0x00000000       0x3d d:/program files - hdd/mplab compiler x32/bin/bin/../../lib/gcc/pic32mx/4.8.3/../../../../pic32mx/lib\libmchp_peripheral_32MX370F512L.a(dma_chn_set_txfer_lib.o)
 .comment       0x00000000       0x3d d:/program files - hdd/mplab compiler x32/bin/bin/../../lib/gcc/pic32mx/4.8.3/../../../../pic32mx/lib\libmchp_peripheral_32MX370F512L.a(dma_reg_map_tbl_lib.o)
 .comment       0x00000000       0x3d d:/program files - hdd/mplab compiler x32/bin/bin/../../lib/gcc/pic32mx/4.8.3/../../../../pic32mx/lib\libmchp_peripheral_32MX370F512L.a(port_set_pins_digital_in_lib.o)
 .comment       0x00000000       0x3d d:/program files - hdd/mplab compiler x32/bin/bin/../../lib/gcc/pic32mx/4.8.3/../../../../pic32mx/lib\libmchp_peripheral_32MX370F512L.a(port_set_pins_digital_out_lib.o)
 .comment       0x00000000       0x3d d:/program files - hdd/mplab compiler x32/bin/bin/../../lib/gcc/pic32mx/4.8.3/../../../../pic32mx/lib\libmchp_peripheral_32MX370F512L.a(_ports_tbl_libp.o)
 .comment       0x00000000       0x3d d:/program files - hdd/mplab compiler x32/bin/bin/../../lib/gcc/pic32mx/4.8.3/../../../../pic32mx/lib\libmchp_peripheral_32MX370F512L.a(uart_lib.o)
 .comment       0x00000000       0x3d d:/program files - hdd/mplab compiler x32/bin/bin/../../lib/gcc/pic32mx/4.8.3/../../../../pic32mx/lib\libmchp_peripheral_32MX370F512L.a(I2CAcknowledgeByte.o)
 .comment       0x00000000       0x3d d:/program files - hdd/mplab compiler x32/bin/bin/../../lib/gcc/pic32mx/4.8.3/../../../../pic32mx/lib\libmchp_peripheral_32MX370F512L.a(I2CAcknowledgeHasCompleted.o)
 .comment       0x00000000       0x3d d:/program files - hdd/mplab compiler x32/bin/bin/../../lib/gcc/pic32mx/4.8.3/../../../../pic32mx/lib\libmchp_peripheral_32MX370F512L.a(I2CBusIsIdle.o)
 .comment       0x00000000       0x3d d:/program files - hdd/mplab compiler x32/bin/bin/../../lib/gcc/pic32mx/4.8.3/../../../../pic32mx/lib\libmchp_peripheral_32MX370F512L.a(I2CByteWasAcknowledged.o)
 .comment       0x00000000       0x3d d:/program files - hdd/mplab compiler x32/bin/bin/../../lib/gcc/pic32mx/4.8.3/../../../../pic32mx/lib\libmchp_peripheral_32MX370F512L.a(I2CEnable.o)
 .comment       0x00000000       0x3d d:/program files - hdd/mplab compiler x32/bin/bin/../../lib/gcc/pic32mx/4.8.3/../../../../pic32mx/lib\libmchp_peripheral_32MX370F512L.a(I2CGetByte.o)
 .comment       0x00000000       0x3d d:/program files - hdd/mplab compiler x32/bin/bin/../../lib/gcc/pic32mx/4.8.3/../../../../pic32mx/lib\libmchp_peripheral_32MX370F512L.a(I2CGetStatus.o)
 .comment       0x00000000       0x3d d:/program files - hdd/mplab compiler x32/bin/bin/../../lib/gcc/pic32mx/4.8.3/../../../../pic32mx/lib\libmchp_peripheral_32MX370F512L.a(I2CReceivedDataIsAvailable.o)
 .comment       0x00000000       0x3d d:/program files - hdd/mplab compiler x32/bin/bin/../../lib/gcc/pic32mx/4.8.3/../../../../pic32mx/lib\libmchp_peripheral_32MX370F512L.a(I2CReceiverEnable.o)
 .comment       0x00000000       0x3d d:/program files - hdd/mplab compiler x32/bin/bin/../../lib/gcc/pic32mx/4.8.3/../../../../pic32mx/lib\libmchp_peripheral_32MX370F512L.a(I2CRepeatStart.o)
 .comment       0x00000000       0x3d d:/program files - hdd/mplab compiler x32/bin/bin/../../lib/gcc/pic32mx/4.8.3/../../../../pic32mx/lib\libmchp_peripheral_32MX370F512L.a(I2CSendByte.o)
 .comment       0x00000000       0x3d d:/program files - hdd/mplab compiler x32/bin/bin/../../lib/gcc/pic32mx/4.8.3/../../../../pic32mx/lib\libmchp_peripheral_32MX370F512L.a(I2CSetFrequency.o)
 .comment       0x00000000       0x3d d:/program files - hdd/mplab compiler x32/bin/bin/../../lib/gcc/pic32mx/4.8.3/../../../../pic32mx/lib\libmchp_peripheral_32MX370F512L.a(I2CStart.o)
 .comment       0x00000000       0x3d d:/program files - hdd/mplab compiler x32/bin/bin/../../lib/gcc/pic32mx/4.8.3/../../../../pic32mx/lib\libmchp_peripheral_32MX370F512L.a(I2CStop.o)
 .comment       0x00000000       0x3d d:/program files - hdd/mplab compiler x32/bin/bin/../../lib/gcc/pic32mx/4.8.3/../../../../pic32mx/lib\libmchp_peripheral_32MX370F512L.a(I2CTransmissionHasCompleted.o)
 .comment       0x00000000       0x3d d:/program files - hdd/mplab compiler x32/bin/bin/../../lib/gcc/pic32mx/4.8.3/../../../../pic32mx/lib\libmchp_peripheral_32MX370F512L.a(I2CTransmitterIsReady.o)
 .comment       0x00000000       0x3d d:/program files - hdd/mplab compiler x32/bin/bin/../../lib/gcc/pic32mx/4.8.3/../../../../pic32mx/lib\libmchp_peripheral_32MX370F512L.a(I2CPrivate.o)
 .comment       0x00000078       0x19 d:/program files - hdd/mplab compiler x32/bin/bin/../../lib/gcc/pic32mx/4.8.3/../../../../pic32mx/lib\libpic32.a(strcpy.o)
                                 0x1a (size before relaxing)
 .comment       0x00000091       0x19 d:/program files - hdd/mplab compiler x32/bin/bin/../../lib/gcc/pic32mx/4.8.3/../../../../pic32mx/lib\libpic32.a(strlen.o)
                                 0x1a (size before relaxing)
 .comment       0x00000000       0x3d d:/program files - hdd/mplab compiler x32/bin/bin/../../lib/gcc/pic32mx/4.8.3/../../../../pic32mx/lib\libpic32.a(default-bootstrap-exception-handler.o)
 .comment       0x00000000       0x3d d:/program files - hdd/mplab compiler x32/bin/bin/../../lib/gcc/pic32mx/4.8.3/../../../../pic32mx/lib\libpic32.a(default-on-reset.o)
 .comment       0x00000000       0x3d d:/program files - hdd/mplab compiler x32/bin/bin/../../lib/gcc/pic32mx/4.8.3/../../../../pic32mx/lib\libpic32.a(default-on-bootstrap.o)
 .comment       0x00000000       0x3d d:/program files - hdd/mplab compiler x32/bin/bin/../../lib/gcc/pic32mx/4.8.3/../../../../pic32mx/lib\libpic32.a(default-general-exception-handler.o)
 .comment       0x00000000       0x3d d:/program files - hdd/mplab compiler x32/bin/bin/../../lib/gcc/pic32mx/4.8.3/../../../../pic32mx/lib\libpic32.a(defaultinterrupt.o)
 .comment       0x000000aa       0x4e d:/program files - hdd/mplab compiler x32/bin/bin/../../lib/gcc/pic32mx/4.8.3/../../../../pic32mx/lib\libc.a(ctype.o)
                                 0x8b (size before relaxing)
 .comment       0x00000000       0x3d d:/program files - hdd/mplab compiler x32/bin/bin/../../lib/gcc/pic32mx/4.8.3/../../../../pic32mx/lib\libc.a(puts.o)
 .comment       0x00000000       0x3d d:/program files - hdd/mplab compiler x32/bin/bin/../../lib/gcc/pic32mx/4.8.3/../../../../pic32mx/lib\libc.a(strchr.o)
 .comment       0x00000000       0x3d d:/program files - hdd/mplab compiler x32/bin/bin/../../lib/gcc/pic32mx/4.8.3/../../../../pic32mx/lib\libc.a(strstr.o)
 .comment       0x00000000       0x3d d:/program files - hdd/mplab compiler x32/bin/bin/../../lib/gcc/pic32mx/4.8.3/../../../../pic32mx/lib\libc.a(strtol.o)
 .comment       0x00000000       0x3d d:/program files - hdd/mplab compiler x32/bin/bin/../../lib/gcc/pic32mx/4.8.3/../../../../pic32mx/lib\libc.a(printf_cdfFnopsuxX.eo)
 .comment       0x00000000       0x3d d:/program files - hdd/mplab compiler x32/bin/bin/../../lib/gcc/pic32mx/4.8.3/../../../../pic32mx/lib\libc.a(sprintf_cdnopuxX.eo)
 .comment       0x00000000       0x3d d:/program files - hdd/mplab compiler x32/bin/bin/../../lib/gcc/pic32mx/4.8.3/../../../../pic32mx/lib\libc.a(sscanf_cdfFnopuxX.eo)
 .comment       0x00000000       0x3d d:/program files - hdd/mplab compiler x32/bin/bin/../../lib/gcc/pic32mx/4.8.3/../../../../pic32mx/lib\libc.a(_iob.o)
 .comment       0x00000000       0x3d d:/program files - hdd/mplab compiler x32/bin/bin/../../lib/gcc/pic32mx/4.8.3/../../../../pic32mx/lib\libc.a(_fputc_simple.o)
 .comment       0x000000f8       0x4f d:/program files - hdd/mplab compiler x32/bin/bin/../../lib/gcc/pic32mx/4.8.3/../../../../pic32mx/lib\libc.a(ctypef.o)
                                 0x8c (size before relaxing)
 .comment       0x00000000       0x3d d:/program files - hdd/mplab compiler x32/bin/bin/../../lib/gcc/pic32mx/4.8.3/../../../../pic32mx/lib\libc.a(errno.o)
 .comment       0x00000000       0x3d d:/program files - hdd/mplab compiler x32/bin/bin/../../lib/gcc/pic32mx/4.8.3/../../../../pic32mx/lib\libc.a(strncmp.o)
 .comment       0x00000000       0x3d d:/program files - hdd/mplab compiler x32/bin/bin/../../lib/gcc/pic32mx/4.8.3/../../../../pic32mx/lib\libc.a(doprnt_cdfFnopsuxX.eo)
 .comment       0x00000000       0x3d d:/program files - hdd/mplab compiler x32/bin/bin/../../lib/gcc/pic32mx/4.8.3/../../../../pic32mx/lib\libc.a(doscan_cdfFnopuxX.eo)
 .comment       0x00000000       0x3d d:/program files - hdd/mplab compiler x32/bin/bin/../../lib/gcc/pic32mx/4.8.3/../../../../pic32mx/lib\libc.a(_flsbuf_simple.o)
 .comment       0x00000000       0x3d d:/program files - hdd/mplab compiler x32/bin/bin/../../lib/gcc/pic32mx/4.8.3/../../../../pic32mx/lib\libc.a(fgetc.o)
 .comment       0x00000000       0x3d d:/program files - hdd/mplab compiler x32/bin/bin/../../lib/gcc/pic32mx/4.8.3/../../../../pic32mx/lib\libc.a(atoi.o)
 .comment       0x00000000       0x3d d:/program files - hdd/mplab compiler x32/bin/bin/../../lib/gcc/pic32mx/4.8.3/../../../../pic32mx/lib\libc.a(ldpowers.o)
 .comment       0x00000000       0x3d d:/program files - hdd/mplab compiler x32/bin/bin/../../lib/gcc/pic32mx/4.8.3/../../../../pic32mx/lib\libc.a(strtod.o)
 .comment       0x00000000       0x3d d:/program files - hdd/mplab compiler x32/bin/bin/../../lib/gcc/pic32mx/4.8.3/../../../../pic32mx/lib\libc.a(strtof.o)
 .comment       0x00000000       0x3d d:/program files - hdd/mplab compiler x32/bin/bin/../../lib/gcc/pic32mx/4.8.3/../../../../pic32mx/lib\libc.a(ungetc.o)
 .comment       0x00000000       0x3d d:/program files - hdd/mplab compiler x32/bin/bin/../../lib/gcc/pic32mx/4.8.3/../../../../pic32mx/lib\libc.a(filbuf.o)
 .comment       0x00000000       0x3d d:/program files - hdd/mplab compiler x32/bin/bin/../../lib/gcc/pic32mx/4.8.3/../../../../pic32mx/lib\libc.a(fflush.o)
 .comment       0x00000000       0x3d d:/program files - hdd/mplab compiler x32/bin/bin/../../lib/gcc/pic32mx/4.8.3/../../../../pic32mx/lib\libm.a(w_atan2f.o)
 .comment       0x00000147       0x9d d:/program files - hdd/mplab compiler x32/bin/bin/../../lib/gcc/pic32mx/4.8.3/../../../../pic32mx/lib\libm.a(__strtod.o)
                                 0xda (size before relaxing)
 .comment       0x000001e4       0x4f d:/program files - hdd/mplab compiler x32/bin/bin/../../lib/gcc/pic32mx/4.8.3/../../../../pic32mx/lib\libm.a(__strtof.o)
                                 0xda (size before relaxing)
 .comment       0x00000000       0x3d d:/program files - hdd/mplab compiler x32/bin/bin/../../lib/gcc/pic32mx/4.8.3/../../../../pic32mx/lib\libm.a(support.o)
 .comment       0x00000233       0x51 d:/program files - hdd/mplab compiler x32/bin/bin/../../lib/gcc/pic32mx/4.8.3/../../../../pic32mx/lib\libe.a(_fixunsdfdi.o)
                                 0xdc (size before relaxing)
 .comment       0x00000284       0x50 d:/program files - hdd/mplab compiler x32/bin/bin/../../lib/gcc/pic32mx/4.8.3/../../../../pic32mx/lib\libe.a(_orderdf2.o)
                                 0xdb (size before relaxing)
 .comment       0x000002d4       0x50 d:/program files - hdd/mplab compiler x32/bin/bin/../../lib/gcc/pic32mx/4.8.3/../../../../pic32mx/lib\libe.a(_ldexp.o)
                                 0xdb (size before relaxing)
 .comment       0x00000324       0x50 d:/program files - hdd/mplab compiler x32/bin/bin/../../lib/gcc/pic32mx/4.8.3/../../../../pic32mx/lib\libe.a(_ldexpf.o)
                                 0xdb (size before relaxing)
 .comment       0x00000374       0x50 d:/program files - hdd/mplab compiler x32/bin/bin/../../lib/gcc/pic32mx/4.8.3/../../../../pic32mx/lib\libe.a(_fixdfdi.o)
                                 0xdb (size before relaxing)
 .comment       0x00000000       0x3d d:/program files - hdd/mplab compiler x32/bin/bin/../../lib/gcc/pic32mx/4.8.3\libgcc.a(_lshrdi3.o)
 .comment       0x00000000       0x3d d:/program files - hdd/mplab compiler x32/bin/bin/../../lib/gcc/pic32mx/4.8.3\libgcc.a(_ashldi3.o)
 .comment       0x00000000       0x3d d:/program files - hdd/mplab compiler x32/bin/bin/../../lib/gcc/pic32mx/4.8.3\libgcc.a(_floatundidf.o)
 .comment       0x00000000       0x3d d:/program files - hdd/mplab compiler x32/bin/bin/../../lib/gcc/pic32mx/4.8.3\libgcc.a(_udivdi3.o)
 .comment       0x00000000       0x3d d:/program files - hdd/mplab compiler x32/bin/bin/../../lib/gcc/pic32mx/4.8.3\libgcc.a(_umoddi3.o)
 .comment       0x00000000       0x3d d:/program files - hdd/mplab compiler x32/bin/bin/../../lib/gcc/pic32mx/4.8.3\libgcc.a(floatunsidf.o)
 .comment       0x00000000       0x3d d:/program files - hdd/mplab compiler x32/bin/bin/../../lib/gcc/pic32mx/4.8.3/../../../../pic32mx/lib\libpic32.a(read.o)
 .comment       0x00000000       0x3d d:/program files - hdd/mplab compiler x32/bin/bin/../../lib/gcc/pic32mx/4.8.3/../../../../pic32mx/lib\libpic32.a(write.o)
 .comment       0x00000000       0x3d d:/program files - hdd/mplab compiler x32/bin/bin/../../lib/gcc/pic32mx/4.8.3/../../../../pic32mx/lib\libpic32.a(xc32_uart.o)

.debug
 *(.debug)

.line
 *(.line)

.debug_srcinfo
 *(.debug_srcinfo)

.debug_sfnames
 *(.debug_sfnames)

.debug_aranges  0x00000000      0xd10
 *(.debug_aranges)
 .debug_aranges
                0x00000000       0x20 build/default/production/_ext/1472/LCDlib.o
 .debug_aranges
                0x00000020       0x20 build/default/production/_ext/1472/hardware.o
 .debug_aranges
                0x00000040       0x20 build/default/production/_ext/1472/led7.o
 .debug_aranges
                0x00000060       0x20 build/default/production/_ext/1472/main.o
 .debug_aranges
                0x00000080       0x20 build/default/production/_ext/1472/swDelay.o
 .debug_aranges
                0x000000a0       0x20 build/default/production/_ext/1472/uart2.o
 .debug_aranges
                0x000000c0       0x20 build/default/production/_ext/1472/uart4.o
 .debug_aranges
                0x000000e0       0x20 build/default/production/_ext/1472/RC.o
 .debug_aranges
                0x00000100       0x20 build/default/production/_ext/1472/Pot.o
 .debug_aranges
                0x00000120       0x20 build/default/production/_ext/1472/GPS_I2C.o
 .debug_aranges
                0x00000140       0x20 build/default/production/_ext/1472/i2c_lib.o
 .debug_aranges
                0x00000160       0x20 build/default/production/_ext/1472/Gamepad.o
 .debug_aranges
                0x00000180       0x20 build/default/production/_ext/1472/ADC_TEMP.o
 .debug_aranges
                0x000001a0       0x20 build/default/production/_ext/1472/Notice.o
 .debug_aranges
                0x000001c0       0x20 build/default/production/_ext/1472/DMA_UART2.o
 .debug_aranges
                0x000001e0       0x20 build/default/production/_ext/1472/MAG3110.o
 .debug_aranges
                0x00000200       0x20 build/default/production/_ext/1472/Stepper.o
 .debug_aranges
                0x00000220       0x20 d:/program files - hdd/mplab compiler x32/bin/bin/../../lib/gcc/pic32mx/4.8.3/../../../../pic32mx/lib\libmchp_peripheral.a(read_core_timer_lib.o)
 .debug_aranges
                0x00000240       0x28 d:/program files - hdd/mplab compiler x32/bin/bin/../../lib/gcc/pic32mx/4.8.3/../../../../pic32mx/lib\libmchp_peripheral_32MX370F512L.a(pcache.o)
 .debug_aranges
                0x00000268       0x20 d:/program files - hdd/mplab compiler x32/bin/bin/../../lib/gcc/pic32mx/4.8.3/../../../../pic32mx/lib\libmchp_peripheral_32MX370F512L.a(int_configure_system_lib.o)
 .debug_aranges
                0x00000288       0x20 d:/program files - hdd/mplab compiler x32/bin/bin/../../lib/gcc/pic32mx/4.8.3/../../../../pic32mx/lib\libmchp_peripheral_32MX370F512L.a(int_enable_interrupts_lib.o)
 .debug_aranges
                0x000002a8       0x20 d:/program files - hdd/mplab compiler x32/bin/bin/../../lib/gcc/pic32mx/4.8.3/../../../../pic32mx/lib\libmchp_peripheral_32MX370F512L.a(int_disable_interrupts_lib.o)
 .debug_aranges
                0x000002c8       0x20 d:/program files - hdd/mplab compiler x32/bin/bin/../../lib/gcc/pic32mx/4.8.3/../../../../pic32mx/lib\libmchp_peripheral_32MX370F512L.a(int_restore_interrupts_lib.o)
 .debug_aranges
                0x000002e8       0x60 d:/program files - hdd/mplab compiler x32/bin/bin/../../lib/gcc/pic32mx/4.8.3/../../../../pic32mx/lib\libmchp_peripheral_32MX370F512L.a(int_tbl_lib.o)
 .debug_aranges
                0x00000348       0x20 d:/program files - hdd/mplab compiler x32/bin/bin/../../lib/gcc/pic32mx/4.8.3/../../../../pic32mx/lib\libmchp_peripheral_32MX370F512L.a(dma_chn_set_ev_enable_flags_lib.o)
 .debug_aranges
                0x00000368       0x20 d:/program files - hdd/mplab compiler x32/bin/bin/../../lib/gcc/pic32mx/4.8.3/../../../../pic32mx/lib\libmchp_peripheral_32MX370F512L.a(dma_chn_open_lib.o)
 .debug_aranges
                0x00000388       0x20 d:/program files - hdd/mplab compiler x32/bin/bin/../../lib/gcc/pic32mx/4.8.3/../../../../pic32mx/lib\libmchp_peripheral_32MX370F512L.a(dma_chn_enable_lib.o)
 .debug_aranges
                0x000003a8       0x20 d:/program files - hdd/mplab compiler x32/bin/bin/../../lib/gcc/pic32mx/4.8.3/../../../../pic32mx/lib\libmchp_peripheral_32MX370F512L.a(dma_chn_get_ev_flags_lib.o)
 .debug_aranges
                0x000003c8       0x20 d:/program files - hdd/mplab compiler x32/bin/bin/../../lib/gcc/pic32mx/4.8.3/../../../../pic32mx/lib\libmchp_peripheral_32MX370F512L.a(dma_chn_write_event_control_flags_lib.o)
 .debug_aranges
                0x000003e8       0x20 d:/program files - hdd/mplab compiler x32/bin/bin/../../lib/gcc/pic32mx/4.8.3/../../../../pic32mx/lib\libmchp_peripheral_32MX370F512L.a(dma_chn_set_match_pattern_lib.o)
 .debug_aranges
                0x00000408       0x20 d:/program files - hdd/mplab compiler x32/bin/bin/../../lib/gcc/pic32mx/4.8.3/../../../../pic32mx/lib\libmchp_peripheral_32MX370F512L.a(dma_chn_set_txfer_lib.o)
 .debug_aranges
                0x00000428       0x20 d:/program files - hdd/mplab compiler x32/bin/bin/../../lib/gcc/pic32mx/4.8.3/../../../../pic32mx/lib\libmchp_peripheral_32MX370F512L.a(port_set_pins_digital_in_lib.o)
 .debug_aranges
                0x00000448       0x20 d:/program files - hdd/mplab compiler x32/bin/bin/../../lib/gcc/pic32mx/4.8.3/../../../../pic32mx/lib\libmchp_peripheral_32MX370F512L.a(port_set_pins_digital_out_lib.o)
 .debug_aranges
                0x00000468       0x58 d:/program files - hdd/mplab compiler x32/bin/bin/../../lib/gcc/pic32mx/4.8.3/../../../../pic32mx/lib\libmchp_peripheral_32MX370F512L.a(uart_lib.o)
 .debug_aranges
                0x000004c0       0x20 d:/program files - hdd/mplab compiler x32/bin/bin/../../lib/gcc/pic32mx/4.8.3/../../../../pic32mx/lib\libmchp_peripheral_32MX370F512L.a(I2CAcknowledgeByte.o)
 .debug_aranges
                0x000004e0       0x20 d:/program files - hdd/mplab compiler x32/bin/bin/../../lib/gcc/pic32mx/4.8.3/../../../../pic32mx/lib\libmchp_peripheral_32MX370F512L.a(I2CAcknowledgeHasCompleted.o)
 .debug_aranges
                0x00000500       0x20 d:/program files - hdd/mplab compiler x32/bin/bin/../../lib/gcc/pic32mx/4.8.3/../../../../pic32mx/lib\libmchp_peripheral_32MX370F512L.a(I2CBusIsIdle.o)
 .debug_aranges
                0x00000520       0x20 d:/program files - hdd/mplab compiler x32/bin/bin/../../lib/gcc/pic32mx/4.8.3/../../../../pic32mx/lib\libmchp_peripheral_32MX370F512L.a(I2CByteWasAcknowledged.o)
 .debug_aranges
                0x00000540       0x20 d:/program files - hdd/mplab compiler x32/bin/bin/../../lib/gcc/pic32mx/4.8.3/../../../../pic32mx/lib\libmchp_peripheral_32MX370F512L.a(I2CEnable.o)
 .debug_aranges
                0x00000560       0x20 d:/program files - hdd/mplab compiler x32/bin/bin/../../lib/gcc/pic32mx/4.8.3/../../../../pic32mx/lib\libmchp_peripheral_32MX370F512L.a(I2CGetByte.o)
 .debug_aranges
                0x00000580       0x20 d:/program files - hdd/mplab compiler x32/bin/bin/../../lib/gcc/pic32mx/4.8.3/../../../../pic32mx/lib\libmchp_peripheral_32MX370F512L.a(I2CGetStatus.o)
 .debug_aranges
                0x000005a0       0x20 d:/program files - hdd/mplab compiler x32/bin/bin/../../lib/gcc/pic32mx/4.8.3/../../../../pic32mx/lib\libmchp_peripheral_32MX370F512L.a(I2CReceivedDataIsAvailable.o)
 .debug_aranges
                0x000005c0       0x20 d:/program files - hdd/mplab compiler x32/bin/bin/../../lib/gcc/pic32mx/4.8.3/../../../../pic32mx/lib\libmchp_peripheral_32MX370F512L.a(I2CReceiverEnable.o)
 .debug_aranges
                0x000005e0       0x20 d:/program files - hdd/mplab compiler x32/bin/bin/../../lib/gcc/pic32mx/4.8.3/../../../../pic32mx/lib\libmchp_peripheral_32MX370F512L.a(I2CRepeatStart.o)
 .debug_aranges
                0x00000600       0x20 d:/program files - hdd/mplab compiler x32/bin/bin/../../lib/gcc/pic32mx/4.8.3/../../../../pic32mx/lib\libmchp_peripheral_32MX370F512L.a(I2CSendByte.o)
 .debug_aranges
                0x00000620       0x20 d:/program files - hdd/mplab compiler x32/bin/bin/../../lib/gcc/pic32mx/4.8.3/../../../../pic32mx/lib\libmchp_peripheral_32MX370F512L.a(I2CSetFrequency.o)
 .debug_aranges
                0x00000640       0x20 d:/program files - hdd/mplab compiler x32/bin/bin/../../lib/gcc/pic32mx/4.8.3/../../../../pic32mx/lib\libmchp_peripheral_32MX370F512L.a(I2CStart.o)
 .debug_aranges
                0x00000660       0x20 d:/program files - hdd/mplab compiler x32/bin/bin/../../lib/gcc/pic32mx/4.8.3/../../../../pic32mx/lib\libmchp_peripheral_32MX370F512L.a(I2CStop.o)
 .debug_aranges
                0x00000680       0x20 d:/program files - hdd/mplab compiler x32/bin/bin/../../lib/gcc/pic32mx/4.8.3/../../../../pic32mx/lib\libmchp_peripheral_32MX370F512L.a(I2CTransmissionHasCompleted.o)
 .debug_aranges
                0x000006a0       0x20 d:/program files - hdd/mplab compiler x32/bin/bin/../../lib/gcc/pic32mx/4.8.3/../../../../pic32mx/lib\libmchp_peripheral_32MX370F512L.a(I2CTransmitterIsReady.o)
 .debug_aranges
                0x000006c0       0x20 d:/program files - hdd/mplab compiler x32/bin/bin/../../lib/gcc/pic32mx/4.8.3/../../../../pic32mx/lib\libpic32.a(default-bootstrap-exception-handler.o)
 .debug_aranges
                0x000006e0       0x20 d:/program files - hdd/mplab compiler x32/bin/bin/../../lib/gcc/pic32mx/4.8.3/../../../../pic32mx/lib\libpic32.a(default-on-reset.o)
 .debug_aranges
                0x00000700       0x20 d:/program files - hdd/mplab compiler x32/bin/bin/../../lib/gcc/pic32mx/4.8.3/../../../../pic32mx/lib\libpic32.a(default-on-bootstrap.o)
 .debug_aranges
                0x00000720       0x20 d:/program files - hdd/mplab compiler x32/bin/bin/../../lib/gcc/pic32mx/4.8.3/../../../../pic32mx/lib\libpic32.a(default-general-exception-handler.o)
 .debug_aranges
                0x00000740       0x20 d:/program files - hdd/mplab compiler x32/bin/bin/../../lib/gcc/pic32mx/4.8.3/../../../../pic32mx/lib\libpic32.a(defaultinterrupt.o)
 .debug_aranges
                0x00000760       0x28 d:/program files - hdd/mplab compiler x32/bin/bin/../../lib/gcc/pic32mx/4.8.3/../../../../pic32mx/lib\libc.a(puts.o)
 .debug_aranges
                0x00000788       0x20 d:/program files - hdd/mplab compiler x32/bin/bin/../../lib/gcc/pic32mx/4.8.3/../../../../pic32mx/lib\libc.a(strchr.o)
 .debug_aranges
                0x000007a8       0x20 d:/program files - hdd/mplab compiler x32/bin/bin/../../lib/gcc/pic32mx/4.8.3/../../../../pic32mx/lib\libc.a(strstr.o)
 .debug_aranges
                0x000007c8       0x28 d:/program files - hdd/mplab compiler x32/bin/bin/../../lib/gcc/pic32mx/4.8.3/../../../../pic32mx/lib\libc.a(strtol.o)
 .debug_aranges
                0x000007f0       0x20 d:/program files - hdd/mplab compiler x32/bin/bin/../../lib/gcc/pic32mx/4.8.3/../../../../pic32mx/lib\libc.a(printf_cdfFnopsuxX.eo)
 .debug_aranges
                0x00000810       0x20 d:/program files - hdd/mplab compiler x32/bin/bin/../../lib/gcc/pic32mx/4.8.3/../../../../pic32mx/lib\libc.a(sprintf_cdnopuxX.eo)
 .debug_aranges
                0x00000830       0x20 d:/program files - hdd/mplab compiler x32/bin/bin/../../lib/gcc/pic32mx/4.8.3/../../../../pic32mx/lib\libc.a(sscanf_cdfFnopuxX.eo)
 .debug_aranges
                0x00000850       0x20 d:/program files - hdd/mplab compiler x32/bin/bin/../../lib/gcc/pic32mx/4.8.3/../../../../pic32mx/lib\libc.a(_fputc_simple.o)
 .debug_aranges
                0x00000870       0xa0 d:/program files - hdd/mplab compiler x32/bin/bin/../../lib/gcc/pic32mx/4.8.3/../../../../pic32mx/lib\libc.a(ctypef.o)
 .debug_aranges
                0x00000910       0x20 d:/program files - hdd/mplab compiler x32/bin/bin/../../lib/gcc/pic32mx/4.8.3/../../../../pic32mx/lib\libc.a(strncmp.o)
 .debug_aranges
                0x00000930       0x28 d:/program files - hdd/mplab compiler x32/bin/bin/../../lib/gcc/pic32mx/4.8.3/../../../../pic32mx/lib\libc.a(doprnt_cdfFnopsuxX.eo)
 .debug_aranges
                0x00000958       0x30 d:/program files - hdd/mplab compiler x32/bin/bin/../../lib/gcc/pic32mx/4.8.3/../../../../pic32mx/lib\libc.a(doscan_cdfFnopuxX.eo)
 .debug_aranges
                0x00000988       0x20 d:/program files - hdd/mplab compiler x32/bin/bin/../../lib/gcc/pic32mx/4.8.3/../../../../pic32mx/lib\libc.a(_flsbuf_simple.o)
 .debug_aranges
                0x000009a8       0x20 d:/program files - hdd/mplab compiler x32/bin/bin/../../lib/gcc/pic32mx/4.8.3/../../../../pic32mx/lib\libc.a(fgetc.o)
 .debug_aranges
                0x000009c8       0x20 d:/program files - hdd/mplab compiler x32/bin/bin/../../lib/gcc/pic32mx/4.8.3/../../../../pic32mx/lib\libc.a(atoi.o)
 .debug_aranges
                0x000009e8       0x28 d:/program files - hdd/mplab compiler x32/bin/bin/../../lib/gcc/pic32mx/4.8.3/../../../../pic32mx/lib\libc.a(strtod.o)
 .debug_aranges
                0x00000a10       0x28 d:/program files - hdd/mplab compiler x32/bin/bin/../../lib/gcc/pic32mx/4.8.3/../../../../pic32mx/lib\libc.a(strtof.o)
 .debug_aranges
                0x00000a38       0x20 d:/program files - hdd/mplab compiler x32/bin/bin/../../lib/gcc/pic32mx/4.8.3/../../../../pic32mx/lib\libc.a(ungetc.o)
 .debug_aranges
                0x00000a58       0x20 d:/program files - hdd/mplab compiler x32/bin/bin/../../lib/gcc/pic32mx/4.8.3/../../../../pic32mx/lib\libc.a(filbuf.o)
 .debug_aranges
                0x00000a78       0x20 d:/program files - hdd/mplab compiler x32/bin/bin/../../lib/gcc/pic32mx/4.8.3/../../../../pic32mx/lib\libc.a(fflush.o)
 .debug_aranges
                0x00000a98       0x20 d:/program files - hdd/mplab compiler x32/bin/bin/../../lib/gcc/pic32mx/4.8.3/../../../../pic32mx/lib\libm.a(w_atan2f.o)
 .debug_aranges
                0x00000ab8       0x20 d:/program files - hdd/mplab compiler x32/bin/bin/../../lib/gcc/pic32mx/4.8.3/../../../../pic32mx/lib\libm.a(__strtod.o)
 .debug_aranges
                0x00000ad8       0x20 d:/program files - hdd/mplab compiler x32/bin/bin/../../lib/gcc/pic32mx/4.8.3/../../../../pic32mx/lib\libm.a(__strtof.o)
 .debug_aranges
                0x00000af8       0x78 d:/program files - hdd/mplab compiler x32/bin/bin/../../lib/gcc/pic32mx/4.8.3/../../../../pic32mx/lib\libm.a(support.o)
 .debug_aranges
                0x00000b70       0x20 d:/program files - hdd/mplab compiler x32/bin/bin/../../lib/gcc/pic32mx/4.8.3/../../../../pic32mx/lib\libe.a(_fixunsdfdi.o)
 .debug_aranges
                0x00000b90       0x20 d:/program files - hdd/mplab compiler x32/bin/bin/../../lib/gcc/pic32mx/4.8.3/../../../../pic32mx/lib\libe.a(_orderdf2.o)
 .debug_aranges
                0x00000bb0       0x20 d:/program files - hdd/mplab compiler x32/bin/bin/../../lib/gcc/pic32mx/4.8.3/../../../../pic32mx/lib\libe.a(_ldexp.o)
 .debug_aranges
                0x00000bd0       0x20 d:/program files - hdd/mplab compiler x32/bin/bin/../../lib/gcc/pic32mx/4.8.3/../../../../pic32mx/lib\libe.a(_ldexpf.o)
 .debug_aranges
                0x00000bf0       0x20 d:/program files - hdd/mplab compiler x32/bin/bin/../../lib/gcc/pic32mx/4.8.3/../../../../pic32mx/lib\libe.a(_fixdfdi.o)
 .debug_aranges
                0x00000c10       0x20 d:/program files - hdd/mplab compiler x32/bin/bin/../../lib/gcc/pic32mx/4.8.3\libgcc.a(_lshrdi3.o)
 .debug_aranges
                0x00000c30       0x20 d:/program files - hdd/mplab compiler x32/bin/bin/../../lib/gcc/pic32mx/4.8.3\libgcc.a(_ashldi3.o)
 .debug_aranges
                0x00000c50       0x20 d:/program files - hdd/mplab compiler x32/bin/bin/../../lib/gcc/pic32mx/4.8.3\libgcc.a(_floatundidf.o)
 .debug_aranges
                0x00000c70       0x20 d:/program files - hdd/mplab compiler x32/bin/bin/../../lib/gcc/pic32mx/4.8.3\libgcc.a(_udivdi3.o)
 .debug_aranges
                0x00000c90       0x20 d:/program files - hdd/mplab compiler x32/bin/bin/../../lib/gcc/pic32mx/4.8.3\libgcc.a(_umoddi3.o)
 .debug_aranges
                0x00000cb0       0x20 d:/program files - hdd/mplab compiler x32/bin/bin/../../lib/gcc/pic32mx/4.8.3\libgcc.a(floatunsidf.o)
 .debug_aranges
                0x00000cd0       0x20 d:/program files - hdd/mplab compiler x32/bin/bin/../../lib/gcc/pic32mx/4.8.3/../../../../pic32mx/lib\libpic32.a(read.o)
 .debug_aranges
                0x00000cf0       0x20 d:/program files - hdd/mplab compiler x32/bin/bin/../../lib/gcc/pic32mx/4.8.3/../../../../pic32mx/lib\libpic32.a(write.o)

.debug_pubnames
 *(.debug_pubnames)

.debug_info     0x00000000    0x1cc3f
 *(.debug_info .gnu.linkonce.wi.*)
 .debug_info    0x00000000     0x127d build/default/production/_ext/1472/LCDlib.o
 .debug_info    0x0000127d     0x24a3 build/default/production/_ext/1472/hardware.o
 .debug_info    0x00003720     0x1b53 build/default/production/_ext/1472/led7.o
 .debug_info    0x00005273     0x1516 build/default/production/_ext/1472/main.o
 .debug_info    0x00006789      0xf6d build/default/production/_ext/1472/swDelay.o
 .debug_info    0x000076f6     0x1a39 build/default/production/_ext/1472/uart2.o
 .debug_info    0x0000912f     0x15f4 build/default/production/_ext/1472/uart4.o
 .debug_info    0x0000a723     0x132f build/default/production/_ext/1472/RC.o
 .debug_info    0x0000ba52     0x12d7 build/default/production/_ext/1472/Pot.o
 .debug_info    0x0000cd29     0x111e build/default/production/_ext/1472/GPS_I2C.o
 .debug_info    0x0000de47     0x1629 build/default/production/_ext/1472/i2c_lib.o
 .debug_info    0x0000f470     0x13aa build/default/production/_ext/1472/Gamepad.o
 .debug_info    0x0001081a     0x176a build/default/production/_ext/1472/ADC_TEMP.o
 .debug_info    0x00011f84      0xfe3 build/default/production/_ext/1472/Notice.o
 .debug_info    0x00012f67     0x1a0a build/default/production/_ext/1472/DMA_UART2.o
 .debug_info    0x00014971     0x1876 build/default/production/_ext/1472/MAG3110.o
 .debug_info    0x000161e7     0x18ce build/default/production/_ext/1472/Stepper.o
 .debug_info    0x00017ab5       0xa8 d:/program files - hdd/mplab compiler x32/bin/bin/../../lib/gcc/pic32mx/4.8.3/../../../../pic32mx/lib\libmchp_peripheral.a(read_core_timer_lib.o)
 .debug_info    0x00017b5d       0xbe d:/program files - hdd/mplab compiler x32/bin/bin/../../lib/gcc/pic32mx/4.8.3/../../../../pic32mx/lib\libmchp_peripheral_32MX370F512L.a(pcache.o)
 .debug_info    0x00017c1b       0xb0 d:/program files - hdd/mplab compiler x32/bin/bin/../../lib/gcc/pic32mx/4.8.3/../../../../pic32mx/lib\libmchp_peripheral_32MX370F512L.a(int_configure_system_lib.o)
 .debug_info    0x00017ccb       0xb2 d:/program files - hdd/mplab compiler x32/bin/bin/../../lib/gcc/pic32mx/4.8.3/../../../../pic32mx/lib\libmchp_peripheral_32MX370F512L.a(int_enable_interrupts_lib.o)
 .debug_info    0x00017d7d       0xb4 d:/program files - hdd/mplab compiler x32/bin/bin/../../lib/gcc/pic32mx/4.8.3/../../../../pic32mx/lib\libmchp_peripheral_32MX370F512L.a(int_disable_interrupts_lib.o)
 .debug_info    0x00017e31       0xb4 d:/program files - hdd/mplab compiler x32/bin/bin/../../lib/gcc/pic32mx/4.8.3/../../../../pic32mx/lib\libmchp_peripheral_32MX370F512L.a(int_restore_interrupts_lib.o)
 .debug_info    0x00017ee5      0x19c d:/program files - hdd/mplab compiler x32/bin/bin/../../lib/gcc/pic32mx/4.8.3/../../../../pic32mx/lib\libmchp_peripheral_32MX370F512L.a(int_tbl_lib.o)
 .debug_info    0x00018081       0xbb d:/program files - hdd/mplab compiler x32/bin/bin/../../lib/gcc/pic32mx/4.8.3/../../../../pic32mx/lib\libmchp_peripheral_32MX370F512L.a(dma_chn_set_ev_enable_flags_lib.o)
 .debug_info    0x0001813c       0xb3 d:/program files - hdd/mplab compiler x32/bin/bin/../../lib/gcc/pic32mx/4.8.3/../../../../pic32mx/lib\libmchp_peripheral_32MX370F512L.a(dma_chn_open_lib.o)
 .debug_info    0x000181ef       0xa4 d:/program files - hdd/mplab compiler x32/bin/bin/../../lib/gcc/pic32mx/4.8.3/../../../../pic32mx/lib\libmchp_peripheral_32MX370F512L.a(dma_chn_enable_lib.o)
 .debug_info    0x00018293       0xae d:/program files - hdd/mplab compiler x32/bin/bin/../../lib/gcc/pic32mx/4.8.3/../../../../pic32mx/lib\libmchp_peripheral_32MX370F512L.a(dma_chn_get_ev_flags_lib.o)
 .debug_info    0x00018341       0xc7 d:/program files - hdd/mplab compiler x32/bin/bin/../../lib/gcc/pic32mx/4.8.3/../../../../pic32mx/lib\libmchp_peripheral_32MX370F512L.a(dma_chn_write_event_control_flags_lib.o)
 .debug_info    0x00018408       0xb8 d:/program files - hdd/mplab compiler x32/bin/bin/../../lib/gcc/pic32mx/4.8.3/../../../../pic32mx/lib\libmchp_peripheral_32MX370F512L.a(dma_chn_set_match_pattern_lib.o)
 .debug_info    0x000184c0       0xba d:/program files - hdd/mplab compiler x32/bin/bin/../../lib/gcc/pic32mx/4.8.3/../../../../pic32mx/lib\libmchp_peripheral_32MX370F512L.a(dma_chn_set_txfer_lib.o)
 .debug_info    0x0001857a       0xb8 d:/program files - hdd/mplab compiler x32/bin/bin/../../lib/gcc/pic32mx/4.8.3/../../../../pic32mx/lib\libmchp_peripheral_32MX370F512L.a(port_set_pins_digital_in_lib.o)
 .debug_info    0x00018632       0xba d:/program files - hdd/mplab compiler x32/bin/bin/../../lib/gcc/pic32mx/4.8.3/../../../../pic32mx/lib\libmchp_peripheral_32MX370F512L.a(port_set_pins_digital_out_lib.o)
 .debug_info    0x000186ec      0x17a d:/program files - hdd/mplab compiler x32/bin/bin/../../lib/gcc/pic32mx/4.8.3/../../../../pic32mx/lib\libmchp_peripheral_32MX370F512L.a(uart_lib.o)
 .debug_info    0x00018866       0xaa d:/program files - hdd/mplab compiler x32/bin/bin/../../lib/gcc/pic32mx/4.8.3/../../../../pic32mx/lib\libmchp_peripheral_32MX370F512L.a(I2CAcknowledgeByte.o)
 .debug_info    0x00018910       0xba d:/program files - hdd/mplab compiler x32/bin/bin/../../lib/gcc/pic32mx/4.8.3/../../../../pic32mx/lib\libmchp_peripheral_32MX370F512L.a(I2CAcknowledgeHasCompleted.o)
 .debug_info    0x000189ca       0x9e d:/program files - hdd/mplab compiler x32/bin/bin/../../lib/gcc/pic32mx/4.8.3/../../../../pic32mx/lib\libmchp_peripheral_32MX370F512L.a(I2CBusIsIdle.o)
 .debug_info    0x00018a68       0xb2 d:/program files - hdd/mplab compiler x32/bin/bin/../../lib/gcc/pic32mx/4.8.3/../../../../pic32mx/lib\libmchp_peripheral_32MX370F512L.a(I2CByteWasAcknowledged.o)
 .debug_info    0x00018b1a       0x98 d:/program files - hdd/mplab compiler x32/bin/bin/../../lib/gcc/pic32mx/4.8.3/../../../../pic32mx/lib\libmchp_peripheral_32MX370F512L.a(I2CEnable.o)
 .debug_info    0x00018bb2       0x9a d:/program files - hdd/mplab compiler x32/bin/bin/../../lib/gcc/pic32mx/4.8.3/../../../../pic32mx/lib\libmchp_peripheral_32MX370F512L.a(I2CGetByte.o)
 .debug_info    0x00018c4c       0x9e d:/program files - hdd/mplab compiler x32/bin/bin/../../lib/gcc/pic32mx/4.8.3/../../../../pic32mx/lib\libmchp_peripheral_32MX370F512L.a(I2CGetStatus.o)
 .debug_info    0x00018cea       0xba d:/program files - hdd/mplab compiler x32/bin/bin/../../lib/gcc/pic32mx/4.8.3/../../../../pic32mx/lib\libmchp_peripheral_32MX370F512L.a(I2CReceivedDataIsAvailable.o)
 .debug_info    0x00018da4       0xa8 d:/program files - hdd/mplab compiler x32/bin/bin/../../lib/gcc/pic32mx/4.8.3/../../../../pic32mx/lib\libmchp_peripheral_32MX370F512L.a(I2CReceiverEnable.o)
 .debug_info    0x00018e4c       0xa2 d:/program files - hdd/mplab compiler x32/bin/bin/../../lib/gcc/pic32mx/4.8.3/../../../../pic32mx/lib\libmchp_peripheral_32MX370F512L.a(I2CRepeatStart.o)
 .debug_info    0x00018eee       0x9c d:/program files - hdd/mplab compiler x32/bin/bin/../../lib/gcc/pic32mx/4.8.3/../../../../pic32mx/lib\libmchp_peripheral_32MX370F512L.a(I2CSendByte.o)
 .debug_info    0x00018f8a       0xa4 d:/program files - hdd/mplab compiler x32/bin/bin/../../lib/gcc/pic32mx/4.8.3/../../../../pic32mx/lib\libmchp_peripheral_32MX370F512L.a(I2CSetFrequency.o)
 .debug_info    0x0001902e       0x96 d:/program files - hdd/mplab compiler x32/bin/bin/../../lib/gcc/pic32mx/4.8.3/../../../../pic32mx/lib\libmchp_peripheral_32MX370F512L.a(I2CStart.o)
 .debug_info    0x000190c4       0x94 d:/program files - hdd/mplab compiler x32/bin/bin/../../lib/gcc/pic32mx/4.8.3/../../../../pic32mx/lib\libmchp_peripheral_32MX370F512L.a(I2CStop.o)
 .debug_info    0x00019158       0xbc d:/program files - hdd/mplab compiler x32/bin/bin/../../lib/gcc/pic32mx/4.8.3/../../../../pic32mx/lib\libmchp_peripheral_32MX370F512L.a(I2CTransmissionHasCompleted.o)
 .debug_info    0x00019214       0xb0 d:/program files - hdd/mplab compiler x32/bin/bin/../../lib/gcc/pic32mx/4.8.3/../../../../pic32mx/lib\libmchp_peripheral_32MX370F512L.a(I2CTransmitterIsReady.o)
 .debug_info    0x000192c4       0xf5 d:/program files - hdd/mplab compiler x32/bin/bin/../../lib/gcc/pic32mx/4.8.3/../../../../pic32mx/lib\libpic32.a(default-bootstrap-exception-handler.o)
 .debug_info    0x000193b9       0xce d:/program files - hdd/mplab compiler x32/bin/bin/../../lib/gcc/pic32mx/4.8.3/../../../../pic32mx/lib\libpic32.a(default-on-reset.o)
 .debug_info    0x00019487       0xd6 d:/program files - hdd/mplab compiler x32/bin/bin/../../lib/gcc/pic32mx/4.8.3/../../../../pic32mx/lib\libpic32.a(default-on-bootstrap.o)
 .debug_info    0x0001955d       0xf1 d:/program files - hdd/mplab compiler x32/bin/bin/../../lib/gcc/pic32mx/4.8.3/../../../../pic32mx/lib\libpic32.a(default-general-exception-handler.o)
 .debug_info    0x0001964e       0xe8 d:/program files - hdd/mplab compiler x32/bin/bin/../../lib/gcc/pic32mx/4.8.3/../../../../pic32mx/lib\libpic32.a(defaultinterrupt.o)
 .debug_info    0x00019736       0xd7 d:/program files - hdd/mplab compiler x32/bin/bin/../../lib/gcc/pic32mx/4.8.3/../../../../pic32mx/lib\libc.a(puts.o)
 .debug_info    0x0001980d       0xc6 d:/program files - hdd/mplab compiler x32/bin/bin/../../lib/gcc/pic32mx/4.8.3/../../../../pic32mx/lib\libc.a(strchr.o)
 .debug_info    0x000198d3       0xc6 d:/program files - hdd/mplab compiler x32/bin/bin/../../lib/gcc/pic32mx/4.8.3/../../../../pic32mx/lib\libc.a(strstr.o)
 .debug_info    0x00019999       0xdd d:/program files - hdd/mplab compiler x32/bin/bin/../../lib/gcc/pic32mx/4.8.3/../../../../pic32mx/lib\libc.a(strtol.o)
 .debug_info    0x00019a76       0xd3 d:/program files - hdd/mplab compiler x32/bin/bin/../../lib/gcc/pic32mx/4.8.3/../../../../pic32mx/lib\libc.a(printf_cdfFnopsuxX.eo)
 .debug_info    0x00019b49       0xd2 d:/program files - hdd/mplab compiler x32/bin/bin/../../lib/gcc/pic32mx/4.8.3/../../../../pic32mx/lib\libc.a(sprintf_cdnopuxX.eo)
 .debug_info    0x00019c1b       0xd2 d:/program files - hdd/mplab compiler x32/bin/bin/../../lib/gcc/pic32mx/4.8.3/../../../../pic32mx/lib\libc.a(sscanf_cdfFnopuxX.eo)
 .debug_info    0x00019ced       0xc4 d:/program files - hdd/mplab compiler x32/bin/bin/../../lib/gcc/pic32mx/4.8.3/../../../../pic32mx/lib\libc.a(_fputc_simple.o)
 .debug_info    0x00019db1      0x23a d:/program files - hdd/mplab compiler x32/bin/bin/../../lib/gcc/pic32mx/4.8.3/../../../../pic32mx/lib\libc.a(ctypef.o)
 .debug_info    0x00019feb       0xc8 d:/program files - hdd/mplab compiler x32/bin/bin/../../lib/gcc/pic32mx/4.8.3/../../../../pic32mx/lib\libc.a(strncmp.o)
 .debug_info    0x0001a0b3       0xfd d:/program files - hdd/mplab compiler x32/bin/bin/../../lib/gcc/pic32mx/4.8.3/../../../../pic32mx/lib\libc.a(doprnt_cdfFnopsuxX.eo)
 .debug_info    0x0001a1b0       0xfc d:/program files - hdd/mplab compiler x32/bin/bin/../../lib/gcc/pic32mx/4.8.3/../../../../pic32mx/lib\libc.a(doscan_cdfFnopuxX.eo)
 .debug_info    0x0001a2ac       0xc7 d:/program files - hdd/mplab compiler x32/bin/bin/../../lib/gcc/pic32mx/4.8.3/../../../../pic32mx/lib\libc.a(_flsbuf_simple.o)
 .debug_info    0x0001a373       0xc4 d:/program files - hdd/mplab compiler x32/bin/bin/../../lib/gcc/pic32mx/4.8.3/../../../../pic32mx/lib\libc.a(fgetc.o)
 .debug_info    0x0001a437       0xc2 d:/program files - hdd/mplab compiler x32/bin/bin/../../lib/gcc/pic32mx/4.8.3/../../../../pic32mx/lib\libc.a(atoi.o)
 .debug_info    0x0001a4f9       0xf6 d:/program files - hdd/mplab compiler x32/bin/bin/../../lib/gcc/pic32mx/4.8.3/../../../../pic32mx/lib\libc.a(strtod.o)
 .debug_info    0x0001a5ef       0xf5 d:/program files - hdd/mplab compiler x32/bin/bin/../../lib/gcc/pic32mx/4.8.3/../../../../pic32mx/lib\libc.a(strtof.o)
 .debug_info    0x0001a6e4       0xc6 d:/program files - hdd/mplab compiler x32/bin/bin/../../lib/gcc/pic32mx/4.8.3/../../../../pic32mx/lib\libc.a(ungetc.o)
 .debug_info    0x0001a7aa       0xc7 d:/program files - hdd/mplab compiler x32/bin/bin/../../lib/gcc/pic32mx/4.8.3/../../../../pic32mx/lib\libc.a(filbuf.o)
 .debug_info    0x0001a871       0xc6 d:/program files - hdd/mplab compiler x32/bin/bin/../../lib/gcc/pic32mx/4.8.3/../../../../pic32mx/lib\libc.a(fflush.o)
 .debug_info    0x0001a937       0xdd d:/program files - hdd/mplab compiler x32/bin/bin/../../lib/gcc/pic32mx/4.8.3/../../../../pic32mx/lib\libm.a(w_atan2f.o)
 .debug_info    0x0001aa14       0xd9 d:/program files - hdd/mplab compiler x32/bin/bin/../../lib/gcc/pic32mx/4.8.3/../../../../pic32mx/lib\libm.a(__strtod.o)
 .debug_info    0x0001aaed       0xd9 d:/program files - hdd/mplab compiler x32/bin/bin/../../lib/gcc/pic32mx/4.8.3/../../../../pic32mx/lib\libm.a(__strtof.o)
 .debug_info    0x0001abc6      0x1da d:/program files - hdd/mplab compiler x32/bin/bin/../../lib/gcc/pic32mx/4.8.3/../../../../pic32mx/lib\libm.a(support.o)
 .debug_info    0x0001ada0       0xcf d:/program files - hdd/mplab compiler x32/bin/bin/../../lib/gcc/pic32mx/4.8.3/../../../../pic32mx/lib\libe.a(_fixunsdfdi.o)
 .debug_info    0x0001ae6f       0xbb d:/program files - hdd/mplab compiler x32/bin/bin/../../lib/gcc/pic32mx/4.8.3/../../../../pic32mx/lib\libe.a(_orderdf2.o)
 .debug_info    0x0001af2a       0xda d:/program files - hdd/mplab compiler x32/bin/bin/../../lib/gcc/pic32mx/4.8.3/../../../../pic32mx/lib\libe.a(_ldexp.o)
 .debug_info    0x0001b004       0xda d:/program files - hdd/mplab compiler x32/bin/bin/../../lib/gcc/pic32mx/4.8.3/../../../../pic32mx/lib\libe.a(_ldexpf.o)
 .debug_info    0x0001b0de       0xba d:/program files - hdd/mplab compiler x32/bin/bin/../../lib/gcc/pic32mx/4.8.3/../../../../pic32mx/lib\libe.a(_fixdfdi.o)
 .debug_info    0x0001b198      0x330 d:/program files - hdd/mplab compiler x32/bin/bin/../../lib/gcc/pic32mx/4.8.3\libgcc.a(_lshrdi3.o)
 .debug_info    0x0001b4c8      0x333 d:/program files - hdd/mplab compiler x32/bin/bin/../../lib/gcc/pic32mx/4.8.3\libgcc.a(_ashldi3.o)
 .debug_info    0x0001b7fb      0x269 d:/program files - hdd/mplab compiler x32/bin/bin/../../lib/gcc/pic32mx/4.8.3\libgcc.a(_floatundidf.o)
 .debug_info    0x0001ba64      0x76f d:/program files - hdd/mplab compiler x32/bin/bin/../../lib/gcc/pic32mx/4.8.3\libgcc.a(_udivdi3.o)
 .debug_info    0x0001c1d3      0x7ac d:/program files - hdd/mplab compiler x32/bin/bin/../../lib/gcc/pic32mx/4.8.3\libgcc.a(_umoddi3.o)
 .debug_info    0x0001c97f      0x142 d:/program files - hdd/mplab compiler x32/bin/bin/../../lib/gcc/pic32mx/4.8.3\libgcc.a(floatunsidf.o)
 .debug_info    0x0001cac1       0xbe d:/program files - hdd/mplab compiler x32/bin/bin/../../lib/gcc/pic32mx/4.8.3/../../../../pic32mx/lib\libpic32.a(read.o)
 .debug_info    0x0001cb7f       0xc0 d:/program files - hdd/mplab compiler x32/bin/bin/../../lib/gcc/pic32mx/4.8.3/../../../../pic32mx/lib\libpic32.a(write.o)

.debug_abbrev   0x00000000     0x3488
 *(.debug_abbrev)
 .debug_abbrev  0x00000000      0x243 build/default/production/_ext/1472/LCDlib.o
 .debug_abbrev  0x00000243      0x2a2 build/default/production/_ext/1472/hardware.o
 .debug_abbrev  0x000004e5      0x1f9 build/default/production/_ext/1472/led7.o
 .debug_abbrev  0x000006de      0x242 build/default/production/_ext/1472/main.o
 .debug_abbrev  0x00000920      0x1a8 build/default/production/_ext/1472/swDelay.o
 .debug_abbrev  0x00000ac8      0x231 build/default/production/_ext/1472/uart2.o
 .debug_abbrev  0x00000cf9      0x2ad build/default/production/_ext/1472/uart4.o
 .debug_abbrev  0x00000fa6      0x237 build/default/production/_ext/1472/RC.o
 .debug_abbrev  0x000011dd      0x170 build/default/production/_ext/1472/Pot.o
 .debug_abbrev  0x0000134d      0x1dd build/default/production/_ext/1472/GPS_I2C.o
 .debug_abbrev  0x0000152a      0x2b4 build/default/production/_ext/1472/i2c_lib.o
 .debug_abbrev  0x000017de      0x29c build/default/production/_ext/1472/Gamepad.o
 .debug_abbrev  0x00001a7a      0x1ba build/default/production/_ext/1472/ADC_TEMP.o
 .debug_abbrev  0x00001c34      0x196 build/default/production/_ext/1472/Notice.o
 .debug_abbrev  0x00001dca      0x19a build/default/production/_ext/1472/DMA_UART2.o
 .debug_abbrev  0x00001f64      0x29b build/default/production/_ext/1472/MAG3110.o
 .debug_abbrev  0x000021ff      0x186 build/default/production/_ext/1472/Stepper.o
 .debug_abbrev  0x00002385       0x28 d:/program files - hdd/mplab compiler x32/bin/bin/../../lib/gcc/pic32mx/4.8.3/../../../../pic32mx/lib\libmchp_peripheral.a(read_core_timer_lib.o)
 .debug_abbrev  0x000023ad       0x28 d:/program files - hdd/mplab compiler x32/bin/bin/../../lib/gcc/pic32mx/4.8.3/../../../../pic32mx/lib\libmchp_peripheral_32MX370F512L.a(pcache.o)
 .debug_abbrev  0x000023d5       0x28 d:/program files - hdd/mplab compiler x32/bin/bin/../../lib/gcc/pic32mx/4.8.3/../../../../pic32mx/lib\libmchp_peripheral_32MX370F512L.a(int_configure_system_lib.o)
 .debug_abbrev  0x000023fd       0x28 d:/program files - hdd/mplab compiler x32/bin/bin/../../lib/gcc/pic32mx/4.8.3/../../../../pic32mx/lib\libmchp_peripheral_32MX370F512L.a(int_enable_interrupts_lib.o)
 .debug_abbrev  0x00002425       0x28 d:/program files - hdd/mplab compiler x32/bin/bin/../../lib/gcc/pic32mx/4.8.3/../../../../pic32mx/lib\libmchp_peripheral_32MX370F512L.a(int_disable_interrupts_lib.o)
 .debug_abbrev  0x0000244d       0x28 d:/program files - hdd/mplab compiler x32/bin/bin/../../lib/gcc/pic32mx/4.8.3/../../../../pic32mx/lib\libmchp_peripheral_32MX370F512L.a(int_restore_interrupts_lib.o)
 .debug_abbrev  0x00002475       0x28 d:/program files - hdd/mplab compiler x32/bin/bin/../../lib/gcc/pic32mx/4.8.3/../../../../pic32mx/lib\libmchp_peripheral_32MX370F512L.a(int_tbl_lib.o)
 .debug_abbrev  0x0000249d       0x28 d:/program files - hdd/mplab compiler x32/bin/bin/../../lib/gcc/pic32mx/4.8.3/../../../../pic32mx/lib\libmchp_peripheral_32MX370F512L.a(dma_chn_set_ev_enable_flags_lib.o)
 .debug_abbrev  0x000024c5       0x37 d:/program files - hdd/mplab compiler x32/bin/bin/../../lib/gcc/pic32mx/4.8.3/../../../../pic32mx/lib\libmchp_peripheral_32MX370F512L.a(dma_chn_open_lib.o)
 .debug_abbrev  0x000024fc       0x28 d:/program files - hdd/mplab compiler x32/bin/bin/../../lib/gcc/pic32mx/4.8.3/../../../../pic32mx/lib\libmchp_peripheral_32MX370F512L.a(dma_chn_enable_lib.o)
 .debug_abbrev  0x00002524       0x28 d:/program files - hdd/mplab compiler x32/bin/bin/../../lib/gcc/pic32mx/4.8.3/../../../../pic32mx/lib\libmchp_peripheral_32MX370F512L.a(dma_chn_get_ev_flags_lib.o)
 .debug_abbrev  0x0000254c       0x28 d:/program files - hdd/mplab compiler x32/bin/bin/../../lib/gcc/pic32mx/4.8.3/../../../../pic32mx/lib\libmchp_peripheral_32MX370F512L.a(dma_chn_write_event_control_flags_lib.o)
 .debug_abbrev  0x00002574       0x28 d:/program files - hdd/mplab compiler x32/bin/bin/../../lib/gcc/pic32mx/4.8.3/../../../../pic32mx/lib\libmchp_peripheral_32MX370F512L.a(dma_chn_set_match_pattern_lib.o)
 .debug_abbrev  0x0000259c       0x37 d:/program files - hdd/mplab compiler x32/bin/bin/../../lib/gcc/pic32mx/4.8.3/../../../../pic32mx/lib\libmchp_peripheral_32MX370F512L.a(dma_chn_set_txfer_lib.o)
 .debug_abbrev  0x000025d3       0x28 d:/program files - hdd/mplab compiler x32/bin/bin/../../lib/gcc/pic32mx/4.8.3/../../../../pic32mx/lib\libmchp_peripheral_32MX370F512L.a(port_set_pins_digital_in_lib.o)
 .debug_abbrev  0x000025fb       0x28 d:/program files - hdd/mplab compiler x32/bin/bin/../../lib/gcc/pic32mx/4.8.3/../../../../pic32mx/lib\libmchp_peripheral_32MX370F512L.a(port_set_pins_digital_out_lib.o)
 .debug_abbrev  0x00002623       0x3e d:/program files - hdd/mplab compiler x32/bin/bin/../../lib/gcc/pic32mx/4.8.3/../../../../pic32mx/lib\libmchp_peripheral_32MX370F512L.a(uart_lib.o)
 .debug_abbrev  0x00002661       0x28 d:/program files - hdd/mplab compiler x32/bin/bin/../../lib/gcc/pic32mx/4.8.3/../../../../pic32mx/lib\libmchp_peripheral_32MX370F512L.a(I2CAcknowledgeByte.o)
 .debug_abbrev  0x00002689       0x28 d:/program files - hdd/mplab compiler x32/bin/bin/../../lib/gcc/pic32mx/4.8.3/../../../../pic32mx/lib\libmchp_peripheral_32MX370F512L.a(I2CAcknowledgeHasCompleted.o)
 .debug_abbrev  0x000026b1       0x28 d:/program files - hdd/mplab compiler x32/bin/bin/../../lib/gcc/pic32mx/4.8.3/../../../../pic32mx/lib\libmchp_peripheral_32MX370F512L.a(I2CBusIsIdle.o)
 .debug_abbrev  0x000026d9       0x28 d:/program files - hdd/mplab compiler x32/bin/bin/../../lib/gcc/pic32mx/4.8.3/../../../../pic32mx/lib\libmchp_peripheral_32MX370F512L.a(I2CByteWasAcknowledged.o)
 .debug_abbrev  0x00002701       0x28 d:/program files - hdd/mplab compiler x32/bin/bin/../../lib/gcc/pic32mx/4.8.3/../../../../pic32mx/lib\libmchp_peripheral_32MX370F512L.a(I2CEnable.o)
 .debug_abbrev  0x00002729       0x28 d:/program files - hdd/mplab compiler x32/bin/bin/../../lib/gcc/pic32mx/4.8.3/../../../../pic32mx/lib\libmchp_peripheral_32MX370F512L.a(I2CGetByte.o)
 .debug_abbrev  0x00002751       0x28 d:/program files - hdd/mplab compiler x32/bin/bin/../../lib/gcc/pic32mx/4.8.3/../../../../pic32mx/lib\libmchp_peripheral_32MX370F512L.a(I2CGetStatus.o)
 .debug_abbrev  0x00002779       0x28 d:/program files - hdd/mplab compiler x32/bin/bin/../../lib/gcc/pic32mx/4.8.3/../../../../pic32mx/lib\libmchp_peripheral_32MX370F512L.a(I2CReceivedDataIsAvailable.o)
 .debug_abbrev  0x000027a1       0x28 d:/program files - hdd/mplab compiler x32/bin/bin/../../lib/gcc/pic32mx/4.8.3/../../../../pic32mx/lib\libmchp_peripheral_32MX370F512L.a(I2CReceiverEnable.o)
 .debug_abbrev  0x000027c9       0x28 d:/program files - hdd/mplab compiler x32/bin/bin/../../lib/gcc/pic32mx/4.8.3/../../../../pic32mx/lib\libmchp_peripheral_32MX370F512L.a(I2CRepeatStart.o)
 .debug_abbrev  0x000027f1       0x28 d:/program files - hdd/mplab compiler x32/bin/bin/../../lib/gcc/pic32mx/4.8.3/../../../../pic32mx/lib\libmchp_peripheral_32MX370F512L.a(I2CSendByte.o)
 .debug_abbrev  0x00002819       0x28 d:/program files - hdd/mplab compiler x32/bin/bin/../../lib/gcc/pic32mx/4.8.3/../../../../pic32mx/lib\libmchp_peripheral_32MX370F512L.a(I2CSetFrequency.o)
 .debug_abbrev  0x00002841       0x28 d:/program files - hdd/mplab compiler x32/bin/bin/../../lib/gcc/pic32mx/4.8.3/../../../../pic32mx/lib\libmchp_peripheral_32MX370F512L.a(I2CStart.o)
 .debug_abbrev  0x00002869       0x28 d:/program files - hdd/mplab compiler x32/bin/bin/../../lib/gcc/pic32mx/4.8.3/../../../../pic32mx/lib\libmchp_peripheral_32MX370F512L.a(I2CStop.o)
 .debug_abbrev  0x00002891       0x28 d:/program files - hdd/mplab compiler x32/bin/bin/../../lib/gcc/pic32mx/4.8.3/../../../../pic32mx/lib\libmchp_peripheral_32MX370F512L.a(I2CTransmissionHasCompleted.o)
 .debug_abbrev  0x000028b9       0x28 d:/program files - hdd/mplab compiler x32/bin/bin/../../lib/gcc/pic32mx/4.8.3/../../../../pic32mx/lib\libmchp_peripheral_32MX370F512L.a(I2CTransmitterIsReady.o)
 .debug_abbrev  0x000028e1       0x28 d:/program files - hdd/mplab compiler x32/bin/bin/../../lib/gcc/pic32mx/4.8.3/../../../../pic32mx/lib\libpic32.a(default-bootstrap-exception-handler.o)
 .debug_abbrev  0x00002909       0x28 d:/program files - hdd/mplab compiler x32/bin/bin/../../lib/gcc/pic32mx/4.8.3/../../../../pic32mx/lib\libpic32.a(default-on-reset.o)
 .debug_abbrev  0x00002931       0x28 d:/program files - hdd/mplab compiler x32/bin/bin/../../lib/gcc/pic32mx/4.8.3/../../../../pic32mx/lib\libpic32.a(default-on-bootstrap.o)
 .debug_abbrev  0x00002959       0x28 d:/program files - hdd/mplab compiler x32/bin/bin/../../lib/gcc/pic32mx/4.8.3/../../../../pic32mx/lib\libpic32.a(default-general-exception-handler.o)
 .debug_abbrev  0x00002981       0x28 d:/program files - hdd/mplab compiler x32/bin/bin/../../lib/gcc/pic32mx/4.8.3/../../../../pic32mx/lib\libpic32.a(defaultinterrupt.o)
 .debug_abbrev  0x000029a9       0x28 d:/program files - hdd/mplab compiler x32/bin/bin/../../lib/gcc/pic32mx/4.8.3/../../../../pic32mx/lib\libc.a(puts.o)
 .debug_abbrev  0x000029d1       0x28 d:/program files - hdd/mplab compiler x32/bin/bin/../../lib/gcc/pic32mx/4.8.3/../../../../pic32mx/lib\libc.a(strchr.o)
 .debug_abbrev  0x000029f9       0x28 d:/program files - hdd/mplab compiler x32/bin/bin/../../lib/gcc/pic32mx/4.8.3/../../../../pic32mx/lib\libc.a(strstr.o)
 .debug_abbrev  0x00002a21       0x28 d:/program files - hdd/mplab compiler x32/bin/bin/../../lib/gcc/pic32mx/4.8.3/../../../../pic32mx/lib\libc.a(strtol.o)
 .debug_abbrev  0x00002a49       0x28 d:/program files - hdd/mplab compiler x32/bin/bin/../../lib/gcc/pic32mx/4.8.3/../../../../pic32mx/lib\libc.a(printf_cdfFnopsuxX.eo)
 .debug_abbrev  0x00002a71       0x28 d:/program files - hdd/mplab compiler x32/bin/bin/../../lib/gcc/pic32mx/4.8.3/../../../../pic32mx/lib\libc.a(sprintf_cdnopuxX.eo)
 .debug_abbrev  0x00002a99       0x28 d:/program files - hdd/mplab compiler x32/bin/bin/../../lib/gcc/pic32mx/4.8.3/../../../../pic32mx/lib\libc.a(sscanf_cdfFnopuxX.eo)
 .debug_abbrev  0x00002ac1       0x28 d:/program files - hdd/mplab compiler x32/bin/bin/../../lib/gcc/pic32mx/4.8.3/../../../../pic32mx/lib\libc.a(_fputc_simple.o)
 .debug_abbrev  0x00002ae9       0x28 d:/program files - hdd/mplab compiler x32/bin/bin/../../lib/gcc/pic32mx/4.8.3/../../../../pic32mx/lib\libc.a(ctypef.o)
 .debug_abbrev  0x00002b11       0x28 d:/program files - hdd/mplab compiler x32/bin/bin/../../lib/gcc/pic32mx/4.8.3/../../../../pic32mx/lib\libc.a(strncmp.o)
 .debug_abbrev  0x00002b39       0x45 d:/program files - hdd/mplab compiler x32/bin/bin/../../lib/gcc/pic32mx/4.8.3/../../../../pic32mx/lib\libc.a(doprnt_cdfFnopsuxX.eo)
 .debug_abbrev  0x00002b7e       0x3c d:/program files - hdd/mplab compiler x32/bin/bin/../../lib/gcc/pic32mx/4.8.3/../../../../pic32mx/lib\libc.a(doscan_cdfFnopuxX.eo)
 .debug_abbrev  0x00002bba       0x28 d:/program files - hdd/mplab compiler x32/bin/bin/../../lib/gcc/pic32mx/4.8.3/../../../../pic32mx/lib\libc.a(_flsbuf_simple.o)
 .debug_abbrev  0x00002be2       0x28 d:/program files - hdd/mplab compiler x32/bin/bin/../../lib/gcc/pic32mx/4.8.3/../../../../pic32mx/lib\libc.a(fgetc.o)
 .debug_abbrev  0x00002c0a       0x28 d:/program files - hdd/mplab compiler x32/bin/bin/../../lib/gcc/pic32mx/4.8.3/../../../../pic32mx/lib\libc.a(atoi.o)
 .debug_abbrev  0x00002c32       0x4f d:/program files - hdd/mplab compiler x32/bin/bin/../../lib/gcc/pic32mx/4.8.3/../../../../pic32mx/lib\libc.a(strtod.o)
 .debug_abbrev  0x00002c81       0x4f d:/program files - hdd/mplab compiler x32/bin/bin/../../lib/gcc/pic32mx/4.8.3/../../../../pic32mx/lib\libc.a(strtof.o)
 .debug_abbrev  0x00002cd0       0x28 d:/program files - hdd/mplab compiler x32/bin/bin/../../lib/gcc/pic32mx/4.8.3/../../../../pic32mx/lib\libc.a(ungetc.o)
 .debug_abbrev  0x00002cf8       0x28 d:/program files - hdd/mplab compiler x32/bin/bin/../../lib/gcc/pic32mx/4.8.3/../../../../pic32mx/lib\libc.a(filbuf.o)
 .debug_abbrev  0x00002d20       0x28 d:/program files - hdd/mplab compiler x32/bin/bin/../../lib/gcc/pic32mx/4.8.3/../../../../pic32mx/lib\libc.a(fflush.o)
 .debug_abbrev  0x00002d48       0x44 d:/program files - hdd/mplab compiler x32/bin/bin/../../lib/gcc/pic32mx/4.8.3/../../../../pic32mx/lib\libm.a(w_atan2f.o)
 .debug_abbrev  0x00002d8c       0x35 d:/program files - hdd/mplab compiler x32/bin/bin/../../lib/gcc/pic32mx/4.8.3/../../../../pic32mx/lib\libm.a(__strtod.o)
 .debug_abbrev  0x00002dc1       0x35 d:/program files - hdd/mplab compiler x32/bin/bin/../../lib/gcc/pic32mx/4.8.3/../../../../pic32mx/lib\libm.a(__strtof.o)
 .debug_abbrev  0x00002df6       0x6d d:/program files - hdd/mplab compiler x32/bin/bin/../../lib/gcc/pic32mx/4.8.3/../../../../pic32mx/lib\libm.a(support.o)
 .debug_abbrev  0x00002e63       0x37 d:/program files - hdd/mplab compiler x32/bin/bin/../../lib/gcc/pic32mx/4.8.3/../../../../pic32mx/lib\libe.a(_fixunsdfdi.o)
 .debug_abbrev  0x00002e9a       0x28 d:/program files - hdd/mplab compiler x32/bin/bin/../../lib/gcc/pic32mx/4.8.3/../../../../pic32mx/lib\libe.a(_orderdf2.o)
 .debug_abbrev  0x00002ec2       0x35 d:/program files - hdd/mplab compiler x32/bin/bin/../../lib/gcc/pic32mx/4.8.3/../../../../pic32mx/lib\libe.a(_ldexp.o)
 .debug_abbrev  0x00002ef7       0x35 d:/program files - hdd/mplab compiler x32/bin/bin/../../lib/gcc/pic32mx/4.8.3/../../../../pic32mx/lib\libe.a(_ldexpf.o)
 .debug_abbrev  0x00002f2c       0x28 d:/program files - hdd/mplab compiler x32/bin/bin/../../lib/gcc/pic32mx/4.8.3/../../../../pic32mx/lib\libe.a(_fixdfdi.o)
 .debug_abbrev  0x00002f54       0xd7 d:/program files - hdd/mplab compiler x32/bin/bin/../../lib/gcc/pic32mx/4.8.3\libgcc.a(_lshrdi3.o)
 .debug_abbrev  0x0000302b       0xc8 d:/program files - hdd/mplab compiler x32/bin/bin/../../lib/gcc/pic32mx/4.8.3\libgcc.a(_ashldi3.o)
 .debug_abbrev  0x000030f3       0x64 d:/program files - hdd/mplab compiler x32/bin/bin/../../lib/gcc/pic32mx/4.8.3\libgcc.a(_floatundidf.o)
 .debug_abbrev  0x00003157      0x138 d:/program files - hdd/mplab compiler x32/bin/bin/../../lib/gcc/pic32mx/4.8.3\libgcc.a(_udivdi3.o)
 .debug_abbrev  0x0000328f      0x147 d:/program files - hdd/mplab compiler x32/bin/bin/../../lib/gcc/pic32mx/4.8.3\libgcc.a(_umoddi3.o)
 .debug_abbrev  0x000033d6       0x62 d:/program files - hdd/mplab compiler x32/bin/bin/../../lib/gcc/pic32mx/4.8.3\libgcc.a(floatunsidf.o)
 .debug_abbrev  0x00003438       0x28 d:/program files - hdd/mplab compiler x32/bin/bin/../../lib/gcc/pic32mx/4.8.3/../../../../pic32mx/lib\libpic32.a(read.o)
 .debug_abbrev  0x00003460       0x28 d:/program files - hdd/mplab compiler x32/bin/bin/../../lib/gcc/pic32mx/4.8.3/../../../../pic32mx/lib\libpic32.a(write.o)

.debug_line     0x00000000     0x4c6a
 *(.debug_line)
 .debug_line    0x00000000      0x32b build/default/production/_ext/1472/LCDlib.o
 .debug_line    0x0000032b      0x26a build/default/production/_ext/1472/hardware.o
 .debug_line    0x00000595      0x2ec build/default/production/_ext/1472/led7.o
 .debug_line    0x00000881      0x2a2 build/default/production/_ext/1472/main.o
 .debug_line    0x00000b23      0x1c8 build/default/production/_ext/1472/swDelay.o
 .debug_line    0x00000ceb      0x216 build/default/production/_ext/1472/uart2.o
 .debug_line    0x00000f01      0x28b build/default/production/_ext/1472/uart4.o
 .debug_line    0x0000118c      0x236 build/default/production/_ext/1472/RC.o
 .debug_line    0x000013c2      0x192 build/default/production/_ext/1472/Pot.o
 .debug_line    0x00001554      0x1f2 build/default/production/_ext/1472/GPS_I2C.o
 .debug_line    0x00001746      0x2ef build/default/production/_ext/1472/i2c_lib.o
 .debug_line    0x00001a35      0x254 build/default/production/_ext/1472/Gamepad.o
 .debug_line    0x00001c89      0x1f9 build/default/production/_ext/1472/ADC_TEMP.o
 .debug_line    0x00001e82        0x0 build/default/production/_ext/1472/CycleData.o
 .debug_line    0x00001e82      0x1b8 build/default/production/_ext/1472/Notice.o
 .debug_line    0x0000203a      0x1e3 build/default/production/_ext/1472/DMA_UART2.o
 .debug_line    0x0000221d      0x332 build/default/production/_ext/1472/MAG3110.o
 .debug_line    0x0000254f      0x19f build/default/production/_ext/1472/Stepper.o
 .debug_line    0x000026ee       0x6b d:/program files - hdd/mplab compiler x32/bin/bin/../../lib/gcc/pic32mx/4.8.3/../../../../pic32mx/lib\libmchp_peripheral.a(read_core_timer_lib.o)
 .debug_line    0x00002759       0x5f d:/program files - hdd/mplab compiler x32/bin/bin/../../lib/gcc/pic32mx/4.8.3/../../../../pic32mx/lib\libmchp_peripheral_32MX370F512L.a(pcache.o)
 .debug_line    0x000027b8       0x6e d:/program files - hdd/mplab compiler x32/bin/bin/../../lib/gcc/pic32mx/4.8.3/../../../../pic32mx/lib\libmchp_peripheral_32MX370F512L.a(int_configure_system_lib.o)
 .debug_line    0x00002826       0x6f d:/program files - hdd/mplab compiler x32/bin/bin/../../lib/gcc/pic32mx/4.8.3/../../../../pic32mx/lib\libmchp_peripheral_32MX370F512L.a(int_enable_interrupts_lib.o)
 .debug_line    0x00002895       0x70 d:/program files - hdd/mplab compiler x32/bin/bin/../../lib/gcc/pic32mx/4.8.3/../../../../pic32mx/lib\libmchp_peripheral_32MX370F512L.a(int_disable_interrupts_lib.o)
 .debug_line    0x00002905       0x70 d:/program files - hdd/mplab compiler x32/bin/bin/../../lib/gcc/pic32mx/4.8.3/../../../../pic32mx/lib\libmchp_peripheral_32MX370F512L.a(int_restore_interrupts_lib.o)
 .debug_line    0x00002975       0x61 d:/program files - hdd/mplab compiler x32/bin/bin/../../lib/gcc/pic32mx/4.8.3/../../../../pic32mx/lib\libmchp_peripheral_32MX370F512L.a(int_tbl_lib.o)
 .debug_line    0x000029d6       0x75 d:/program files - hdd/mplab compiler x32/bin/bin/../../lib/gcc/pic32mx/4.8.3/../../../../pic32mx/lib\libmchp_peripheral_32MX370F512L.a(dma_chn_set_ev_enable_flags_lib.o)
 .debug_line    0x00002a4b       0x78 d:/program files - hdd/mplab compiler x32/bin/bin/../../lib/gcc/pic32mx/4.8.3/../../../../pic32mx/lib\libmchp_peripheral_32MX370F512L.a(dma_chn_open_lib.o)
 .debug_line    0x00002ac3       0x68 d:/program files - hdd/mplab compiler x32/bin/bin/../../lib/gcc/pic32mx/4.8.3/../../../../pic32mx/lib\libmchp_peripheral_32MX370F512L.a(dma_chn_enable_lib.o)
 .debug_line    0x00002b2b       0x6e d:/program files - hdd/mplab compiler x32/bin/bin/../../lib/gcc/pic32mx/4.8.3/../../../../pic32mx/lib\libmchp_peripheral_32MX370F512L.a(dma_chn_get_ev_flags_lib.o)
 .debug_line    0x00002b99       0x7b d:/program files - hdd/mplab compiler x32/bin/bin/../../lib/gcc/pic32mx/4.8.3/../../../../pic32mx/lib\libmchp_peripheral_32MX370F512L.a(dma_chn_write_event_control_flags_lib.o)
 .debug_line    0x00002c14       0x73 d:/program files - hdd/mplab compiler x32/bin/bin/../../lib/gcc/pic32mx/4.8.3/../../../../pic32mx/lib\libmchp_peripheral_32MX370F512L.a(dma_chn_set_match_pattern_lib.o)
 .debug_line    0x00002c87       0x7d d:/program files - hdd/mplab compiler x32/bin/bin/../../lib/gcc/pic32mx/4.8.3/../../../../pic32mx/lib\libmchp_peripheral_32MX370F512L.a(dma_chn_set_txfer_lib.o)
 .debug_line    0x00002d04        0x0 d:/program files - hdd/mplab compiler x32/bin/bin/../../lib/gcc/pic32mx/4.8.3/../../../../pic32mx/lib\libmchp_peripheral_32MX370F512L.a(dma_reg_map_tbl_lib.o)
 .debug_line    0x00002d04       0x74 d:/program files - hdd/mplab compiler x32/bin/bin/../../lib/gcc/pic32mx/4.8.3/../../../../pic32mx/lib\libmchp_peripheral_32MX370F512L.a(port_set_pins_digital_in_lib.o)
 .debug_line    0x00002d78       0x75 d:/program files - hdd/mplab compiler x32/bin/bin/../../lib/gcc/pic32mx/4.8.3/../../../../pic32mx/lib\libmchp_peripheral_32MX370F512L.a(port_set_pins_digital_out_lib.o)
 .debug_line    0x00002ded        0x0 d:/program files - hdd/mplab compiler x32/bin/bin/../../lib/gcc/pic32mx/4.8.3/../../../../pic32mx/lib\libmchp_peripheral_32MX370F512L.a(_ports_tbl_libp.o)
 .debug_line    0x00002ded       0x5f d:/program files - hdd/mplab compiler x32/bin/bin/../../lib/gcc/pic32mx/4.8.3/../../../../pic32mx/lib\libmchp_peripheral_32MX370F512L.a(uart_lib.o)
 .debug_line    0x00002e4c       0x68 d:/program files - hdd/mplab compiler x32/bin/bin/../../lib/gcc/pic32mx/4.8.3/../../../../pic32mx/lib\libmchp_peripheral_32MX370F512L.a(I2CAcknowledgeByte.o)
 .debug_line    0x00002eb4       0x70 d:/program files - hdd/mplab compiler x32/bin/bin/../../lib/gcc/pic32mx/4.8.3/../../../../pic32mx/lib\libmchp_peripheral_32MX370F512L.a(I2CAcknowledgeHasCompleted.o)
 .debug_line    0x00002f24       0x62 d:/program files - hdd/mplab compiler x32/bin/bin/../../lib/gcc/pic32mx/4.8.3/../../../../pic32mx/lib\libmchp_peripheral_32MX370F512L.a(I2CBusIsIdle.o)
 .debug_line    0x00002f86       0x6c d:/program files - hdd/mplab compiler x32/bin/bin/../../lib/gcc/pic32mx/4.8.3/../../../../pic32mx/lib\libmchp_peripheral_32MX370F512L.a(I2CByteWasAcknowledged.o)
 .debug_line    0x00002ff2       0x5f d:/program files - hdd/mplab compiler x32/bin/bin/../../lib/gcc/pic32mx/4.8.3/../../../../pic32mx/lib\libmchp_peripheral_32MX370F512L.a(I2CEnable.o)
 .debug_line    0x00003051       0x60 d:/program files - hdd/mplab compiler x32/bin/bin/../../lib/gcc/pic32mx/4.8.3/../../../../pic32mx/lib\libmchp_peripheral_32MX370F512L.a(I2CGetByte.o)
 .debug_line    0x000030b1       0x62 d:/program files - hdd/mplab compiler x32/bin/bin/../../lib/gcc/pic32mx/4.8.3/../../../../pic32mx/lib\libmchp_peripheral_32MX370F512L.a(I2CGetStatus.o)
 .debug_line    0x00003113       0x70 d:/program files - hdd/mplab compiler x32/bin/bin/../../lib/gcc/pic32mx/4.8.3/../../../../pic32mx/lib\libmchp_peripheral_32MX370F512L.a(I2CReceivedDataIsAvailable.o)
 .debug_line    0x00003183       0x67 d:/program files - hdd/mplab compiler x32/bin/bin/../../lib/gcc/pic32mx/4.8.3/../../../../pic32mx/lib\libmchp_peripheral_32MX370F512L.a(I2CReceiverEnable.o)
 .debug_line    0x000031ea       0x64 d:/program files - hdd/mplab compiler x32/bin/bin/../../lib/gcc/pic32mx/4.8.3/../../../../pic32mx/lib\libmchp_peripheral_32MX370F512L.a(I2CRepeatStart.o)
 .debug_line    0x0000324e       0x61 d:/program files - hdd/mplab compiler x32/bin/bin/../../lib/gcc/pic32mx/4.8.3/../../../../pic32mx/lib\libmchp_peripheral_32MX370F512L.a(I2CSendByte.o)
 .debug_line    0x000032af       0x65 d:/program files - hdd/mplab compiler x32/bin/bin/../../lib/gcc/pic32mx/4.8.3/../../../../pic32mx/lib\libmchp_peripheral_32MX370F512L.a(I2CSetFrequency.o)
 .debug_line    0x00003314       0x5e d:/program files - hdd/mplab compiler x32/bin/bin/../../lib/gcc/pic32mx/4.8.3/../../../../pic32mx/lib\libmchp_peripheral_32MX370F512L.a(I2CStart.o)
 .debug_line    0x00003372       0x5d d:/program files - hdd/mplab compiler x32/bin/bin/../../lib/gcc/pic32mx/4.8.3/../../../../pic32mx/lib\libmchp_peripheral_32MX370F512L.a(I2CStop.o)
 .debug_line    0x000033cf       0x71 d:/program files - hdd/mplab compiler x32/bin/bin/../../lib/gcc/pic32mx/4.8.3/../../../../pic32mx/lib\libmchp_peripheral_32MX370F512L.a(I2CTransmissionHasCompleted.o)
 .debug_line    0x00003440       0x6b d:/program files - hdd/mplab compiler x32/bin/bin/../../lib/gcc/pic32mx/4.8.3/../../../../pic32mx/lib\libmchp_peripheral_32MX370F512L.a(I2CTransmitterIsReady.o)
 .debug_line    0x000034ab        0x0 d:/program files - hdd/mplab compiler x32/bin/bin/../../lib/gcc/pic32mx/4.8.3/../../../../pic32mx/lib\libmchp_peripheral_32MX370F512L.a(I2CPrivate.o)
 .debug_line    0x000034ab       0xa7 d:/program files - hdd/mplab compiler x32/bin/bin/../../lib/gcc/pic32mx/4.8.3/../../../../pic32mx/lib\libpic32.a(default-bootstrap-exception-handler.o)
 .debug_line    0x00003552       0x94 d:/program files - hdd/mplab compiler x32/bin/bin/../../lib/gcc/pic32mx/4.8.3/../../../../pic32mx/lib\libpic32.a(default-on-reset.o)
 .debug_line    0x000035e6       0x98 d:/program files - hdd/mplab compiler x32/bin/bin/../../lib/gcc/pic32mx/4.8.3/../../../../pic32mx/lib\libpic32.a(default-on-bootstrap.o)
 .debug_line    0x0000367e       0xa5 d:/program files - hdd/mplab compiler x32/bin/bin/../../lib/gcc/pic32mx/4.8.3/../../../../pic32mx/lib\libpic32.a(default-general-exception-handler.o)
 .debug_line    0x00003723       0xa6 d:/program files - hdd/mplab compiler x32/bin/bin/../../lib/gcc/pic32mx/4.8.3/../../../../pic32mx/lib\libpic32.a(defaultinterrupt.o)
 .debug_line    0x000037c9        0x0 d:/program files - hdd/mplab compiler x32/bin/bin/../../lib/gcc/pic32mx/4.8.3/../../../../pic32mx/lib\libc.a(ctype.o)
 .debug_line    0x000037c9       0x7e d:/program files - hdd/mplab compiler x32/bin/bin/../../lib/gcc/pic32mx/4.8.3/../../../../pic32mx/lib\libc.a(puts.o)
 .debug_line    0x00003847       0x80 d:/program files - hdd/mplab compiler x32/bin/bin/../../lib/gcc/pic32mx/4.8.3/../../../../pic32mx/lib\libc.a(strchr.o)
 .debug_line    0x000038c7       0x80 d:/program files - hdd/mplab compiler x32/bin/bin/../../lib/gcc/pic32mx/4.8.3/../../../../pic32mx/lib\libc.a(strstr.o)
 .debug_line    0x00003947       0x80 d:/program files - hdd/mplab compiler x32/bin/bin/../../lib/gcc/pic32mx/4.8.3/../../../../pic32mx/lib\libc.a(strtol.o)
 .debug_line    0x000039c7       0x80 d:/program files - hdd/mplab compiler x32/bin/bin/../../lib/gcc/pic32mx/4.8.3/../../../../pic32mx/lib\libc.a(printf_cdfFnopsuxX.eo)
 .debug_line    0x00003a47       0x81 d:/program files - hdd/mplab compiler x32/bin/bin/../../lib/gcc/pic32mx/4.8.3/../../../../pic32mx/lib\libc.a(sprintf_cdnopuxX.eo)
 .debug_line    0x00003ac8       0x80 d:/program files - hdd/mplab compiler x32/bin/bin/../../lib/gcc/pic32mx/4.8.3/../../../../pic32mx/lib\libc.a(sscanf_cdfFnopuxX.eo)
 .debug_line    0x00003b48        0x0 d:/program files - hdd/mplab compiler x32/bin/bin/../../lib/gcc/pic32mx/4.8.3/../../../../pic32mx/lib\libc.a(_iob.o)
 .debug_line    0x00003b48       0x7f d:/program files - hdd/mplab compiler x32/bin/bin/../../lib/gcc/pic32mx/4.8.3/../../../../pic32mx/lib\libc.a(_fputc_simple.o)
 .debug_line    0x00003bc7       0x80 d:/program files - hdd/mplab compiler x32/bin/bin/../../lib/gcc/pic32mx/4.8.3/../../../../pic32mx/lib\libc.a(ctypef.o)
 .debug_line    0x00003c47        0x0 d:/program files - hdd/mplab compiler x32/bin/bin/../../lib/gcc/pic32mx/4.8.3/../../../../pic32mx/lib\libc.a(errno.o)
 .debug_line    0x00003c47       0x81 d:/program files - hdd/mplab compiler x32/bin/bin/../../lib/gcc/pic32mx/4.8.3/../../../../pic32mx/lib\libc.a(strncmp.o)
 .debug_line    0x00003cc8       0x80 d:/program files - hdd/mplab compiler x32/bin/bin/../../lib/gcc/pic32mx/4.8.3/../../../../pic32mx/lib\libc.a(doprnt_cdfFnopsuxX.eo)
 .debug_line    0x00003d48       0x80 d:/program files - hdd/mplab compiler x32/bin/bin/../../lib/gcc/pic32mx/4.8.3/../../../../pic32mx/lib\libc.a(doscan_cdfFnopuxX.eo)
 .debug_line    0x00003dc8       0x80 d:/program files - hdd/mplab compiler x32/bin/bin/../../lib/gcc/pic32mx/4.8.3/../../../../pic32mx/lib\libc.a(_flsbuf_simple.o)
 .debug_line    0x00003e48       0x7f d:/program files - hdd/mplab compiler x32/bin/bin/../../lib/gcc/pic32mx/4.8.3/../../../../pic32mx/lib\libc.a(fgetc.o)
 .debug_line    0x00003ec7       0x7e d:/program files - hdd/mplab compiler x32/bin/bin/../../lib/gcc/pic32mx/4.8.3/../../../../pic32mx/lib\libc.a(atoi.o)
 .debug_line    0x00003f45        0x0 d:/program files - hdd/mplab compiler x32/bin/bin/../../lib/gcc/pic32mx/4.8.3/../../../../pic32mx/lib\libc.a(ldpowers.o)
 .debug_line    0x00003f45       0x80 d:/program files - hdd/mplab compiler x32/bin/bin/../../lib/gcc/pic32mx/4.8.3/../../../../pic32mx/lib\libc.a(strtod.o)
 .debug_line    0x00003fc5       0x80 d:/program files - hdd/mplab compiler x32/bin/bin/../../lib/gcc/pic32mx/4.8.3/../../../../pic32mx/lib\libc.a(strtof.o)
 .debug_line    0x00004045       0x80 d:/program files - hdd/mplab compiler x32/bin/bin/../../lib/gcc/pic32mx/4.8.3/../../../../pic32mx/lib\libc.a(ungetc.o)
 .debug_line    0x000040c5       0x80 d:/program files - hdd/mplab compiler x32/bin/bin/../../lib/gcc/pic32mx/4.8.3/../../../../pic32mx/lib\libc.a(filbuf.o)
 .debug_line    0x00004145       0x80 d:/program files - hdd/mplab compiler x32/bin/bin/../../lib/gcc/pic32mx/4.8.3/../../../../pic32mx/lib\libc.a(fflush.o)
 .debug_line    0x000041c5       0x89 d:/program files - hdd/mplab compiler x32/bin/bin/../../lib/gcc/pic32mx/4.8.3/../../../../pic32mx/lib\libm.a(w_atan2f.o)
 .debug_line    0x0000424e       0x89 d:/program files - hdd/mplab compiler x32/bin/bin/../../lib/gcc/pic32mx/4.8.3/../../../../pic32mx/lib\libm.a(__strtod.o)
 .debug_line    0x000042d7       0x89 d:/program files - hdd/mplab compiler x32/bin/bin/../../lib/gcc/pic32mx/4.8.3/../../../../pic32mx/lib\libm.a(__strtof.o)
 .debug_line    0x00004360       0x86 d:/program files - hdd/mplab compiler x32/bin/bin/../../lib/gcc/pic32mx/4.8.3/../../../../pic32mx/lib\libm.a(support.o)
 .debug_line    0x000043e6       0x83 d:/program files - hdd/mplab compiler x32/bin/bin/../../lib/gcc/pic32mx/4.8.3/../../../../pic32mx/lib\libe.a(_fixunsdfdi.o)
 .debug_line    0x00004469       0x82 d:/program files - hdd/mplab compiler x32/bin/bin/../../lib/gcc/pic32mx/4.8.3/../../../../pic32mx/lib\libe.a(_orderdf2.o)
 .debug_line    0x000044eb       0xa3 d:/program files - hdd/mplab compiler x32/bin/bin/../../lib/gcc/pic32mx/4.8.3/../../../../pic32mx/lib\libe.a(_ldexp.o)
 .debug_line    0x0000458e       0xa3 d:/program files - hdd/mplab compiler x32/bin/bin/../../lib/gcc/pic32mx/4.8.3/../../../../pic32mx/lib\libe.a(_ldexpf.o)
 .debug_line    0x00004631       0x82 d:/program files - hdd/mplab compiler x32/bin/bin/../../lib/gcc/pic32mx/4.8.3/../../../../pic32mx/lib\libe.a(_fixdfdi.o)
 .debug_line    0x000046b3       0xab d:/program files - hdd/mplab compiler x32/bin/bin/../../lib/gcc/pic32mx/4.8.3\libgcc.a(_lshrdi3.o)
 .debug_line    0x0000475e       0xab d:/program files - hdd/mplab compiler x32/bin/bin/../../lib/gcc/pic32mx/4.8.3\libgcc.a(_ashldi3.o)
 .debug_line    0x00004809       0xab d:/program files - hdd/mplab compiler x32/bin/bin/../../lib/gcc/pic32mx/4.8.3\libgcc.a(_floatundidf.o)
 .debug_line    0x000048b4       0xfd d:/program files - hdd/mplab compiler x32/bin/bin/../../lib/gcc/pic32mx/4.8.3\libgcc.a(_udivdi3.o)
 .debug_line    0x000049b1      0x10f d:/program files - hdd/mplab compiler x32/bin/bin/../../lib/gcc/pic32mx/4.8.3\libgcc.a(_umoddi3.o)
 .debug_line    0x00004ac0       0x99 d:/program files - hdd/mplab compiler x32/bin/bin/../../lib/gcc/pic32mx/4.8.3\libgcc.a(floatunsidf.o)
 .debug_line    0x00004b59       0x88 d:/program files - hdd/mplab compiler x32/bin/bin/../../lib/gcc/pic32mx/4.8.3/../../../../pic32mx/lib\libpic32.a(read.o)
 .debug_line    0x00004be1       0x89 d:/program files - hdd/mplab compiler x32/bin/bin/../../lib/gcc/pic32mx/4.8.3/../../../../pic32mx/lib\libpic32.a(write.o)
 .debug_line    0x00004c6a        0x0 d:/program files - hdd/mplab compiler x32/bin/bin/../../lib/gcc/pic32mx/4.8.3/../../../../pic32mx/lib\libpic32.a(xc32_uart.o)

.debug_frame    0x00000000     0x1e88
 *(.debug_frame)
 .debug_frame   0x00000000       0xf0 build/default/production/_ext/1472/LCDlib.o
 .debug_frame   0x000000f0       0x9c build/default/production/_ext/1472/hardware.o
 .debug_frame   0x0000018c       0xf0 build/default/production/_ext/1472/led7.o
 .debug_frame   0x0000027c       0xac build/default/production/_ext/1472/main.o
 .debug_frame   0x00000328       0xb0 build/default/production/_ext/1472/swDelay.o
 .debug_frame   0x000003d8       0xfc build/default/production/_ext/1472/uart2.o
 .debug_frame   0x000004d4      0x110 build/default/production/_ext/1472/uart4.o
 .debug_frame   0x000005e4      0x130 build/default/production/_ext/1472/RC.o
 .debug_frame   0x00000714       0x4c build/default/production/_ext/1472/Pot.o
 .debug_frame   0x00000760       0x90 build/default/production/_ext/1472/GPS_I2C.o
 .debug_frame   0x000007f0      0x190 build/default/production/_ext/1472/i2c_lib.o
 .debug_frame   0x00000980       0xec build/default/production/_ext/1472/Gamepad.o
 .debug_frame   0x00000a6c       0xc8 build/default/production/_ext/1472/ADC_TEMP.o
 .debug_frame   0x00000b34       0x7c build/default/production/_ext/1472/Notice.o
 .debug_frame   0x00000bb0       0x9c build/default/production/_ext/1472/DMA_UART2.o
 .debug_frame   0x00000c4c      0x33c build/default/production/_ext/1472/MAG3110.o
 .debug_frame   0x00000f88       0x50 build/default/production/_ext/1472/Stepper.o
 .debug_frame   0x00000fd8       0x20 d:/program files - hdd/mplab compiler x32/bin/bin/../../lib/gcc/pic32mx/4.8.3/../../../../pic32mx/lib\libmchp_peripheral.a(read_core_timer_lib.o)
 .debug_frame   0x00000ff8       0x30 d:/program files - hdd/mplab compiler x32/bin/bin/../../lib/gcc/pic32mx/4.8.3/../../../../pic32mx/lib\libmchp_peripheral_32MX370F512L.a(pcache.o)
 .debug_frame   0x00001028       0x20 d:/program files - hdd/mplab compiler x32/bin/bin/../../lib/gcc/pic32mx/4.8.3/../../../../pic32mx/lib\libmchp_peripheral_32MX370F512L.a(int_configure_system_lib.o)
 .debug_frame   0x00001048       0x20 d:/program files - hdd/mplab compiler x32/bin/bin/../../lib/gcc/pic32mx/4.8.3/../../../../pic32mx/lib\libmchp_peripheral_32MX370F512L.a(int_enable_interrupts_lib.o)
 .debug_frame   0x00001068       0x20 d:/program files - hdd/mplab compiler x32/bin/bin/../../lib/gcc/pic32mx/4.8.3/../../../../pic32mx/lib\libmchp_peripheral_32MX370F512L.a(int_disable_interrupts_lib.o)
 .debug_frame   0x00001088       0x20 d:/program files - hdd/mplab compiler x32/bin/bin/../../lib/gcc/pic32mx/4.8.3/../../../../pic32mx/lib\libmchp_peripheral_32MX370F512L.a(int_restore_interrupts_lib.o)
 .debug_frame   0x000010a8       0xa0 d:/program files - hdd/mplab compiler x32/bin/bin/../../lib/gcc/pic32mx/4.8.3/../../../../pic32mx/lib\libmchp_peripheral_32MX370F512L.a(int_tbl_lib.o)
 .debug_frame   0x00001148       0x20 d:/program files - hdd/mplab compiler x32/bin/bin/../../lib/gcc/pic32mx/4.8.3/../../../../pic32mx/lib\libmchp_peripheral_32MX370F512L.a(dma_chn_set_ev_enable_flags_lib.o)
 .debug_frame   0x00001168       0x30 d:/program files - hdd/mplab compiler x32/bin/bin/../../lib/gcc/pic32mx/4.8.3/../../../../pic32mx/lib\libmchp_peripheral_32MX370F512L.a(dma_chn_open_lib.o)
 .debug_frame   0x00001198       0x20 d:/program files - hdd/mplab compiler x32/bin/bin/../../lib/gcc/pic32mx/4.8.3/../../../../pic32mx/lib\libmchp_peripheral_32MX370F512L.a(dma_chn_enable_lib.o)
 .debug_frame   0x000011b8       0x20 d:/program files - hdd/mplab compiler x32/bin/bin/../../lib/gcc/pic32mx/4.8.3/../../../../pic32mx/lib\libmchp_peripheral_32MX370F512L.a(dma_chn_get_ev_flags_lib.o)
 .debug_frame   0x000011d8       0x20 d:/program files - hdd/mplab compiler x32/bin/bin/../../lib/gcc/pic32mx/4.8.3/../../../../pic32mx/lib\libmchp_peripheral_32MX370F512L.a(dma_chn_write_event_control_flags_lib.o)
 .debug_frame   0x000011f8       0x20 d:/program files - hdd/mplab compiler x32/bin/bin/../../lib/gcc/pic32mx/4.8.3/../../../../pic32mx/lib\libmchp_peripheral_32MX370F512L.a(dma_chn_set_match_pattern_lib.o)
 .debug_frame   0x00001218       0x20 d:/program files - hdd/mplab compiler x32/bin/bin/../../lib/gcc/pic32mx/4.8.3/../../../../pic32mx/lib\libmchp_peripheral_32MX370F512L.a(dma_chn_set_txfer_lib.o)
 .debug_frame   0x00001238       0x20 d:/program files - hdd/mplab compiler x32/bin/bin/../../lib/gcc/pic32mx/4.8.3/../../../../pic32mx/lib\libmchp_peripheral_32MX370F512L.a(port_set_pins_digital_in_lib.o)
 .debug_frame   0x00001258       0x20 d:/program files - hdd/mplab compiler x32/bin/bin/../../lib/gcc/pic32mx/4.8.3/../../../../pic32mx/lib\libmchp_peripheral_32MX370F512L.a(port_set_pins_digital_out_lib.o)
 .debug_frame   0x00001278       0x90 d:/program files - hdd/mplab compiler x32/bin/bin/../../lib/gcc/pic32mx/4.8.3/../../../../pic32mx/lib\libmchp_peripheral_32MX370F512L.a(uart_lib.o)
 .debug_frame   0x00001308       0x20 d:/program files - hdd/mplab compiler x32/bin/bin/../../lib/gcc/pic32mx/4.8.3/../../../../pic32mx/lib\libmchp_peripheral_32MX370F512L.a(I2CAcknowledgeByte.o)
 .debug_frame   0x00001328       0x20 d:/program files - hdd/mplab compiler x32/bin/bin/../../lib/gcc/pic32mx/4.8.3/../../../../pic32mx/lib\libmchp_peripheral_32MX370F512L.a(I2CAcknowledgeHasCompleted.o)
 .debug_frame   0x00001348       0x20 d:/program files - hdd/mplab compiler x32/bin/bin/../../lib/gcc/pic32mx/4.8.3/../../../../pic32mx/lib\libmchp_peripheral_32MX370F512L.a(I2CBusIsIdle.o)
 .debug_frame   0x00001368       0x20 d:/program files - hdd/mplab compiler x32/bin/bin/../../lib/gcc/pic32mx/4.8.3/../../../../pic32mx/lib\libmchp_peripheral_32MX370F512L.a(I2CByteWasAcknowledged.o)
 .debug_frame   0x00001388       0x20 d:/program files - hdd/mplab compiler x32/bin/bin/../../lib/gcc/pic32mx/4.8.3/../../../../pic32mx/lib\libmchp_peripheral_32MX370F512L.a(I2CEnable.o)
 .debug_frame   0x000013a8       0x20 d:/program files - hdd/mplab compiler x32/bin/bin/../../lib/gcc/pic32mx/4.8.3/../../../../pic32mx/lib\libmchp_peripheral_32MX370F512L.a(I2CGetByte.o)
 .debug_frame   0x000013c8       0x20 d:/program files - hdd/mplab compiler x32/bin/bin/../../lib/gcc/pic32mx/4.8.3/../../../../pic32mx/lib\libmchp_peripheral_32MX370F512L.a(I2CGetStatus.o)
 .debug_frame   0x000013e8       0x20 d:/program files - hdd/mplab compiler x32/bin/bin/../../lib/gcc/pic32mx/4.8.3/../../../../pic32mx/lib\libmchp_peripheral_32MX370F512L.a(I2CReceivedDataIsAvailable.o)
 .debug_frame   0x00001408       0x20 d:/program files - hdd/mplab compiler x32/bin/bin/../../lib/gcc/pic32mx/4.8.3/../../../../pic32mx/lib\libmchp_peripheral_32MX370F512L.a(I2CReceiverEnable.o)
 .debug_frame   0x00001428       0x20 d:/program files - hdd/mplab compiler x32/bin/bin/../../lib/gcc/pic32mx/4.8.3/../../../../pic32mx/lib\libmchp_peripheral_32MX370F512L.a(I2CRepeatStart.o)
 .debug_frame   0x00001448       0x20 d:/program files - hdd/mplab compiler x32/bin/bin/../../lib/gcc/pic32mx/4.8.3/../../../../pic32mx/lib\libmchp_peripheral_32MX370F512L.a(I2CSendByte.o)
 .debug_frame   0x00001468       0x20 d:/program files - hdd/mplab compiler x32/bin/bin/../../lib/gcc/pic32mx/4.8.3/../../../../pic32mx/lib\libmchp_peripheral_32MX370F512L.a(I2CSetFrequency.o)
 .debug_frame   0x00001488       0x20 d:/program files - hdd/mplab compiler x32/bin/bin/../../lib/gcc/pic32mx/4.8.3/../../../../pic32mx/lib\libmchp_peripheral_32MX370F512L.a(I2CStart.o)
 .debug_frame   0x000014a8       0x20 d:/program files - hdd/mplab compiler x32/bin/bin/../../lib/gcc/pic32mx/4.8.3/../../../../pic32mx/lib\libmchp_peripheral_32MX370F512L.a(I2CStop.o)
 .debug_frame   0x000014c8       0x20 d:/program files - hdd/mplab compiler x32/bin/bin/../../lib/gcc/pic32mx/4.8.3/../../../../pic32mx/lib\libmchp_peripheral_32MX370F512L.a(I2CTransmissionHasCompleted.o)
 .debug_frame   0x000014e8       0x20 d:/program files - hdd/mplab compiler x32/bin/bin/../../lib/gcc/pic32mx/4.8.3/../../../../pic32mx/lib\libmchp_peripheral_32MX370F512L.a(I2CTransmitterIsReady.o)
 .debug_frame   0x00001508       0x2c d:/program files - hdd/mplab compiler x32/bin/bin/../../lib/gcc/pic32mx/4.8.3/../../../../pic32mx/lib\libpic32.a(default-bootstrap-exception-handler.o)
 .debug_frame   0x00001534       0x20 d:/program files - hdd/mplab compiler x32/bin/bin/../../lib/gcc/pic32mx/4.8.3/../../../../pic32mx/lib\libpic32.a(default-on-reset.o)
 .debug_frame   0x00001554       0x20 d:/program files - hdd/mplab compiler x32/bin/bin/../../lib/gcc/pic32mx/4.8.3/../../../../pic32mx/lib\libpic32.a(default-on-bootstrap.o)
 .debug_frame   0x00001574       0x2c d:/program files - hdd/mplab compiler x32/bin/bin/../../lib/gcc/pic32mx/4.8.3/../../../../pic32mx/lib\libpic32.a(default-general-exception-handler.o)
 .debug_frame   0x000015a0       0x20 d:/program files - hdd/mplab compiler x32/bin/bin/../../lib/gcc/pic32mx/4.8.3/../../../../pic32mx/lib\libpic32.a(defaultinterrupt.o)
 .debug_frame   0x000015c0       0x48 d:/program files - hdd/mplab compiler x32/bin/bin/../../lib/gcc/pic32mx/4.8.3/../../../../pic32mx/lib\libc.a(puts.o)
 .debug_frame   0x00001608       0x20 d:/program files - hdd/mplab compiler x32/bin/bin/../../lib/gcc/pic32mx/4.8.3/../../../../pic32mx/lib\libc.a(strchr.o)
 .debug_frame   0x00001628       0x2c d:/program files - hdd/mplab compiler x32/bin/bin/../../lib/gcc/pic32mx/4.8.3/../../../../pic32mx/lib\libc.a(strstr.o)
 .debug_frame   0x00001654       0x58 d:/program files - hdd/mplab compiler x32/bin/bin/../../lib/gcc/pic32mx/4.8.3/../../../../pic32mx/lib\libc.a(strtol.o)
 .debug_frame   0x000016ac       0x28 d:/program files - hdd/mplab compiler x32/bin/bin/../../lib/gcc/pic32mx/4.8.3/../../../../pic32mx/lib\libc.a(printf_cdfFnopsuxX.eo)
 .debug_frame   0x000016d4       0x28 d:/program files - hdd/mplab compiler x32/bin/bin/../../lib/gcc/pic32mx/4.8.3/../../../../pic32mx/lib\libc.a(sprintf_cdnopuxX.eo)
 .debug_frame   0x000016fc       0x28 d:/program files - hdd/mplab compiler x32/bin/bin/../../lib/gcc/pic32mx/4.8.3/../../../../pic32mx/lib\libc.a(sscanf_cdfFnopuxX.eo)
 .debug_frame   0x00001724       0x2c d:/program files - hdd/mplab compiler x32/bin/bin/../../lib/gcc/pic32mx/4.8.3/../../../../pic32mx/lib\libc.a(_fputc_simple.o)
 .debug_frame   0x00001750      0x120 d:/program files - hdd/mplab compiler x32/bin/bin/../../lib/gcc/pic32mx/4.8.3/../../../../pic32mx/lib\libc.a(ctypef.o)
 .debug_frame   0x00001870       0x20 d:/program files - hdd/mplab compiler x32/bin/bin/../../lib/gcc/pic32mx/4.8.3/../../../../pic32mx/lib\libc.a(strncmp.o)
 .debug_frame   0x00001890       0x58 d:/program files - hdd/mplab compiler x32/bin/bin/../../lib/gcc/pic32mx/4.8.3/../../../../pic32mx/lib\libc.a(doprnt_cdfFnopsuxX.eo)
 .debug_frame   0x000018e8       0x70 d:/program files - hdd/mplab compiler x32/bin/bin/../../lib/gcc/pic32mx/4.8.3/../../../../pic32mx/lib\libc.a(doscan_cdfFnopuxX.eo)
 .debug_frame   0x00001958       0x28 d:/program files - hdd/mplab compiler x32/bin/bin/../../lib/gcc/pic32mx/4.8.3/../../../../pic32mx/lib\libc.a(_flsbuf_simple.o)
 .debug_frame   0x00001980       0x2c d:/program files - hdd/mplab compiler x32/bin/bin/../../lib/gcc/pic32mx/4.8.3/../../../../pic32mx/lib\libc.a(fgetc.o)
 .debug_frame   0x000019ac       0x20 d:/program files - hdd/mplab compiler x32/bin/bin/../../lib/gcc/pic32mx/4.8.3/../../../../pic32mx/lib\libc.a(atoi.o)
 .debug_frame   0x000019cc       0x40 d:/program files - hdd/mplab compiler x32/bin/bin/../../lib/gcc/pic32mx/4.8.3/../../../../pic32mx/lib\libc.a(strtod.o)
 .debug_frame   0x00001a0c       0x40 d:/program files - hdd/mplab compiler x32/bin/bin/../../lib/gcc/pic32mx/4.8.3/../../../../pic32mx/lib\libc.a(strtof.o)
 .debug_frame   0x00001a4c       0x20 d:/program files - hdd/mplab compiler x32/bin/bin/../../lib/gcc/pic32mx/4.8.3/../../../../pic32mx/lib\libc.a(ungetc.o)
 .debug_frame   0x00001a6c       0x30 d:/program files - hdd/mplab compiler x32/bin/bin/../../lib/gcc/pic32mx/4.8.3/../../../../pic32mx/lib\libc.a(filbuf.o)
 .debug_frame   0x00001a9c       0x28 d:/program files - hdd/mplab compiler x32/bin/bin/../../lib/gcc/pic32mx/4.8.3/../../../../pic32mx/lib\libc.a(fflush.o)
 .debug_frame   0x00001ac4       0x34 d:/program files - hdd/mplab compiler x32/bin/bin/../../lib/gcc/pic32mx/4.8.3/../../../../pic32mx/lib\libm.a(w_atan2f.o)
 .debug_frame   0x00001af8       0x38 d:/program files - hdd/mplab compiler x32/bin/bin/../../lib/gcc/pic32mx/4.8.3/../../../../pic32mx/lib\libm.a(__strtod.o)
 .debug_frame   0x00001b30       0x38 d:/program files - hdd/mplab compiler x32/bin/bin/../../lib/gcc/pic32mx/4.8.3/../../../../pic32mx/lib\libm.a(__strtof.o)
 .debug_frame   0x00001b68      0x134 d:/program files - hdd/mplab compiler x32/bin/bin/../../lib/gcc/pic32mx/4.8.3/../../../../pic32mx/lib\libm.a(support.o)
 .debug_frame   0x00001c9c       0x2c d:/program files - hdd/mplab compiler x32/bin/bin/../../lib/gcc/pic32mx/4.8.3/../../../../pic32mx/lib\libe.a(_fixunsdfdi.o)
 .debug_frame   0x00001cc8       0x20 d:/program files - hdd/mplab compiler x32/bin/bin/../../lib/gcc/pic32mx/4.8.3/../../../../pic32mx/lib\libe.a(_orderdf2.o)
 .debug_frame   0x00001ce8       0x2c d:/program files - hdd/mplab compiler x32/bin/bin/../../lib/gcc/pic32mx/4.8.3/../../../../pic32mx/lib\libe.a(_ldexp.o)
 .debug_frame   0x00001d14       0x20 d:/program files - hdd/mplab compiler x32/bin/bin/../../lib/gcc/pic32mx/4.8.3/../../../../pic32mx/lib\libe.a(_ldexpf.o)
 .debug_frame   0x00001d34       0x20 d:/program files - hdd/mplab compiler x32/bin/bin/../../lib/gcc/pic32mx/4.8.3/../../../../pic32mx/lib\libe.a(_fixdfdi.o)
 .debug_frame   0x00001d54       0x20 d:/program files - hdd/mplab compiler x32/bin/bin/../../lib/gcc/pic32mx/4.8.3\libgcc.a(_lshrdi3.o)
 .debug_frame   0x00001d74       0x20 d:/program files - hdd/mplab compiler x32/bin/bin/../../lib/gcc/pic32mx/4.8.3\libgcc.a(_ashldi3.o)
 .debug_frame   0x00001d94       0x28 d:/program files - hdd/mplab compiler x32/bin/bin/../../lib/gcc/pic32mx/4.8.3\libgcc.a(_floatundidf.o)
 .debug_frame   0x00001dbc       0x20 d:/program files - hdd/mplab compiler x32/bin/bin/../../lib/gcc/pic32mx/4.8.3\libgcc.a(_udivdi3.o)
 .debug_frame   0x00001ddc       0x20 d:/program files - hdd/mplab compiler x32/bin/bin/../../lib/gcc/pic32mx/4.8.3\libgcc.a(_umoddi3.o)
 .debug_frame   0x00001dfc       0x28 d:/program files - hdd/mplab compiler x32/bin/bin/../../lib/gcc/pic32mx/4.8.3\libgcc.a(floatunsidf.o)
 .debug_frame   0x00001e24       0x2c d:/program files - hdd/mplab compiler x32/bin/bin/../../lib/gcc/pic32mx/4.8.3/../../../../pic32mx/lib\libpic32.a(read.o)
 .debug_frame   0x00001e50       0x38 d:/program files - hdd/mplab compiler x32/bin/bin/../../lib/gcc/pic32mx/4.8.3/../../../../pic32mx/lib\libpic32.a(write.o)

.debug_str      0x00000000       0xf9
 *(.debug_str)
 .debug_str     0x00000000        0x0 build/default/production/_ext/1472/LCDlib.o
 .debug_str     0x00000000       0x15 build/default/production/_ext/1472/hardware.o
 .debug_str     0x00000015        0x0 build/default/production/_ext/1472/led7.o
 .debug_str     0x00000015        0xe build/default/production/_ext/1472/main.o
 .debug_str     0x00000023        0xd build/default/production/_ext/1472/swDelay.o
 .debug_str     0x00000030        0x0 build/default/production/_ext/1472/uart2.o
 .debug_str     0x00000030        0x0 build/default/production/_ext/1472/uart4.o
 .debug_str     0x00000030       0x11 build/default/production/_ext/1472/RC.o
 .debug_str     0x00000041        0x0 build/default/production/_ext/1472/Pot.o
 .debug_str     0x00000041        0x8 build/default/production/_ext/1472/GPS_I2C.o
 .debug_str     0x00000049       0x57 build/default/production/_ext/1472/i2c_lib.o
 .debug_str     0x000000a0       0x12 build/default/production/_ext/1472/Gamepad.o
 .debug_str     0x000000b2        0x0 build/default/production/_ext/1472/ADC_TEMP.o
 .debug_str     0x000000b2        0x0 build/default/production/_ext/1472/CycleData.o
 .debug_str     0x000000b2       0x18 build/default/production/_ext/1472/Notice.o
 .debug_str     0x000000ca        0x0 build/default/production/_ext/1472/DMA_UART2.o
 .debug_str     0x000000ca       0x1d build/default/production/_ext/1472/MAG3110.o
 .debug_str     0x000000e7        0x0 build/default/production/_ext/1472/Stepper.o
 .debug_str     0x000000e7        0x0 d:/program files - hdd/mplab compiler x32/bin/bin/../../lib/gcc/pic32mx/4.8.3/../../../../pic32mx/lib\libmchp_peripheral.a(read_core_timer_lib.o)
 .debug_str     0x000000e7        0x0 d:/program files - hdd/mplab compiler x32/bin/bin/../../lib/gcc/pic32mx/4.8.3/../../../../pic32mx/lib\libmchp_peripheral_32MX370F512L.a(pcache.o)
 .debug_str     0x000000e7        0x0 d:/program files - hdd/mplab compiler x32/bin/bin/../../lib/gcc/pic32mx/4.8.3/../../../../pic32mx/lib\libmchp_peripheral_32MX370F512L.a(int_configure_system_lib.o)
 .debug_str     0x000000e7        0x0 d:/program files - hdd/mplab compiler x32/bin/bin/../../lib/gcc/pic32mx/4.8.3/../../../../pic32mx/lib\libmchp_peripheral_32MX370F512L.a(int_enable_interrupts_lib.o)
 .debug_str     0x000000e7        0x0 d:/program files - hdd/mplab compiler x32/bin/bin/../../lib/gcc/pic32mx/4.8.3/../../../../pic32mx/lib\libmchp_peripheral_32MX370F512L.a(int_disable_interrupts_lib.o)
 .debug_str     0x000000e7        0x0 d:/program files - hdd/mplab compiler x32/bin/bin/../../lib/gcc/pic32mx/4.8.3/../../../../pic32mx/lib\libmchp_peripheral_32MX370F512L.a(int_restore_interrupts_lib.o)
 .debug_str     0x000000e7        0x0 d:/program files - hdd/mplab compiler x32/bin/bin/../../lib/gcc/pic32mx/4.8.3/../../../../pic32mx/lib\libmchp_peripheral_32MX370F512L.a(int_tbl_lib.o)
 .debug_str     0x000000e7        0x0 d:/program files - hdd/mplab compiler x32/bin/bin/../../lib/gcc/pic32mx/4.8.3/../../../../pic32mx/lib\libmchp_peripheral_32MX370F512L.a(dma_chn_set_ev_enable_flags_lib.o)
 .debug_str     0x000000e7        0x0 d:/program files - hdd/mplab compiler x32/bin/bin/../../lib/gcc/pic32mx/4.8.3/../../../../pic32mx/lib\libmchp_peripheral_32MX370F512L.a(dma_chn_open_lib.o)
 .debug_str     0x000000e7        0x0 d:/program files - hdd/mplab compiler x32/bin/bin/../../lib/gcc/pic32mx/4.8.3/../../../../pic32mx/lib\libmchp_peripheral_32MX370F512L.a(dma_chn_enable_lib.o)
 .debug_str     0x000000e7        0x0 d:/program files - hdd/mplab compiler x32/bin/bin/../../lib/gcc/pic32mx/4.8.3/../../../../pic32mx/lib\libmchp_peripheral_32MX370F512L.a(dma_chn_get_ev_flags_lib.o)
 .debug_str     0x000000e7        0x0 d:/program files - hdd/mplab compiler x32/bin/bin/../../lib/gcc/pic32mx/4.8.3/../../../../pic32mx/lib\libmchp_peripheral_32MX370F512L.a(dma_chn_write_event_control_flags_lib.o)
 .debug_str     0x000000e7        0x0 d:/program files - hdd/mplab compiler x32/bin/bin/../../lib/gcc/pic32mx/4.8.3/../../../../pic32mx/lib\libmchp_peripheral_32MX370F512L.a(dma_chn_set_match_pattern_lib.o)
 .debug_str     0x000000e7        0x0 d:/program files - hdd/mplab compiler x32/bin/bin/../../lib/gcc/pic32mx/4.8.3/../../../../pic32mx/lib\libmchp_peripheral_32MX370F512L.a(dma_chn_set_txfer_lib.o)
 .debug_str     0x000000e7        0x0 d:/program files - hdd/mplab compiler x32/bin/bin/../../lib/gcc/pic32mx/4.8.3/../../../../pic32mx/lib\libmchp_peripheral_32MX370F512L.a(dma_reg_map_tbl_lib.o)
 .debug_str     0x000000e7        0x0 d:/program files - hdd/mplab compiler x32/bin/bin/../../lib/gcc/pic32mx/4.8.3/../../../../pic32mx/lib\libmchp_peripheral_32MX370F512L.a(port_set_pins_digital_in_lib.o)
 .debug_str     0x000000e7        0x0 d:/program files - hdd/mplab compiler x32/bin/bin/../../lib/gcc/pic32mx/4.8.3/../../../../pic32mx/lib\libmchp_peripheral_32MX370F512L.a(port_set_pins_digital_out_lib.o)
 .debug_str     0x000000e7        0x0 d:/program files - hdd/mplab compiler x32/bin/bin/../../lib/gcc/pic32mx/4.8.3/../../../../pic32mx/lib\libmchp_peripheral_32MX370F512L.a(_ports_tbl_libp.o)
 .debug_str     0x000000e7        0x0 d:/program files - hdd/mplab compiler x32/bin/bin/../../lib/gcc/pic32mx/4.8.3/../../../../pic32mx/lib\libmchp_peripheral_32MX370F512L.a(uart_lib.o)
 .debug_str     0x000000e7        0x0 d:/program files - hdd/mplab compiler x32/bin/bin/../../lib/gcc/pic32mx/4.8.3/../../../../pic32mx/lib\libmchp_peripheral_32MX370F512L.a(I2CAcknowledgeByte.o)
 .debug_str     0x000000e7        0x0 d:/program files - hdd/mplab compiler x32/bin/bin/../../lib/gcc/pic32mx/4.8.3/../../../../pic32mx/lib\libmchp_peripheral_32MX370F512L.a(I2CAcknowledgeHasCompleted.o)
 .debug_str     0x000000e7        0x0 d:/program files - hdd/mplab compiler x32/bin/bin/../../lib/gcc/pic32mx/4.8.3/../../../../pic32mx/lib\libmchp_peripheral_32MX370F512L.a(I2CBusIsIdle.o)
 .debug_str     0x000000e7        0x0 d:/program files - hdd/mplab compiler x32/bin/bin/../../lib/gcc/pic32mx/4.8.3/../../../../pic32mx/lib\libmchp_peripheral_32MX370F512L.a(I2CByteWasAcknowledged.o)
 .debug_str     0x000000e7        0x0 d:/program files - hdd/mplab compiler x32/bin/bin/../../lib/gcc/pic32mx/4.8.3/../../../../pic32mx/lib\libmchp_peripheral_32MX370F512L.a(I2CEnable.o)
 .debug_str     0x000000e7        0x0 d:/program files - hdd/mplab compiler x32/bin/bin/../../lib/gcc/pic32mx/4.8.3/../../../../pic32mx/lib\libmchp_peripheral_32MX370F512L.a(I2CGetByte.o)
 .debug_str     0x000000e7        0x0 d:/program files - hdd/mplab compiler x32/bin/bin/../../lib/gcc/pic32mx/4.8.3/../../../../pic32mx/lib\libmchp_peripheral_32MX370F512L.a(I2CGetStatus.o)
 .debug_str     0x000000e7        0x0 d:/program files - hdd/mplab compiler x32/bin/bin/../../lib/gcc/pic32mx/4.8.3/../../../../pic32mx/lib\libmchp_peripheral_32MX370F512L.a(I2CReceivedDataIsAvailable.o)
 .debug_str     0x000000e7        0x0 d:/program files - hdd/mplab compiler x32/bin/bin/../../lib/gcc/pic32mx/4.8.3/../../../../pic32mx/lib\libmchp_peripheral_32MX370F512L.a(I2CReceiverEnable.o)
 .debug_str     0x000000e7        0x0 d:/program files - hdd/mplab compiler x32/bin/bin/../../lib/gcc/pic32mx/4.8.3/../../../../pic32mx/lib\libmchp_peripheral_32MX370F512L.a(I2CRepeatStart.o)
 .debug_str     0x000000e7        0x0 d:/program files - hdd/mplab compiler x32/bin/bin/../../lib/gcc/pic32mx/4.8.3/../../../../pic32mx/lib\libmchp_peripheral_32MX370F512L.a(I2CSendByte.o)
 .debug_str     0x000000e7        0x0 d:/program files - hdd/mplab compiler x32/bin/bin/../../lib/gcc/pic32mx/4.8.3/../../../../pic32mx/lib\libmchp_peripheral_32MX370F512L.a(I2CSetFrequency.o)
 .debug_str     0x000000e7        0x0 d:/program files - hdd/mplab compiler x32/bin/bin/../../lib/gcc/pic32mx/4.8.3/../../../../pic32mx/lib\libmchp_peripheral_32MX370F512L.a(I2CStart.o)
 .debug_str     0x000000e7        0x0 d:/program files - hdd/mplab compiler x32/bin/bin/../../lib/gcc/pic32mx/4.8.3/../../../../pic32mx/lib\libmchp_peripheral_32MX370F512L.a(I2CStop.o)
 .debug_str     0x000000e7        0x0 d:/program files - hdd/mplab compiler x32/bin/bin/../../lib/gcc/pic32mx/4.8.3/../../../../pic32mx/lib\libmchp_peripheral_32MX370F512L.a(I2CTransmissionHasCompleted.o)
 .debug_str     0x000000e7        0x0 d:/program files - hdd/mplab compiler x32/bin/bin/../../lib/gcc/pic32mx/4.8.3/../../../../pic32mx/lib\libmchp_peripheral_32MX370F512L.a(I2CTransmitterIsReady.o)
 .debug_str     0x000000e7        0x0 d:/program files - hdd/mplab compiler x32/bin/bin/../../lib/gcc/pic32mx/4.8.3/../../../../pic32mx/lib\libmchp_peripheral_32MX370F512L.a(I2CPrivate.o)
 .debug_str     0x000000e7        0x0 d:/program files - hdd/mplab compiler x32/bin/bin/../../lib/gcc/pic32mx/4.8.3/../../../../pic32mx/lib\libpic32.a(default-bootstrap-exception-handler.o)
 .debug_str     0x000000e7        0x0 d:/program files - hdd/mplab compiler x32/bin/bin/../../lib/gcc/pic32mx/4.8.3/../../../../pic32mx/lib\libpic32.a(default-on-reset.o)
 .debug_str     0x000000e7        0x0 d:/program files - hdd/mplab compiler x32/bin/bin/../../lib/gcc/pic32mx/4.8.3/../../../../pic32mx/lib\libpic32.a(default-on-bootstrap.o)
 .debug_str     0x000000e7        0x0 d:/program files - hdd/mplab compiler x32/bin/bin/../../lib/gcc/pic32mx/4.8.3/../../../../pic32mx/lib\libpic32.a(default-general-exception-handler.o)
 .debug_str     0x000000e7        0x0 d:/program files - hdd/mplab compiler x32/bin/bin/../../lib/gcc/pic32mx/4.8.3/../../../../pic32mx/lib\libpic32.a(defaultinterrupt.o)
 .debug_str     0x000000e7        0x0 d:/program files - hdd/mplab compiler x32/bin/bin/../../lib/gcc/pic32mx/4.8.3/../../../../pic32mx/lib\libc.a(ctype.o)
 .debug_str     0x000000e7        0x0 d:/program files - hdd/mplab compiler x32/bin/bin/../../lib/gcc/pic32mx/4.8.3/../../../../pic32mx/lib\libc.a(puts.o)
 .debug_str     0x000000e7        0x0 d:/program files - hdd/mplab compiler x32/bin/bin/../../lib/gcc/pic32mx/4.8.3/../../../../pic32mx/lib\libc.a(strchr.o)
 .debug_str     0x000000e7        0x0 d:/program files - hdd/mplab compiler x32/bin/bin/../../lib/gcc/pic32mx/4.8.3/../../../../pic32mx/lib\libc.a(strstr.o)
 .debug_str     0x000000e7        0x0 d:/program files - hdd/mplab compiler x32/bin/bin/../../lib/gcc/pic32mx/4.8.3/../../../../pic32mx/lib\libc.a(strtol.o)
 .debug_str     0x000000e7        0x0 d:/program files - hdd/mplab compiler x32/bin/bin/../../lib/gcc/pic32mx/4.8.3/../../../../pic32mx/lib\libc.a(printf_cdfFnopsuxX.eo)
 .debug_str     0x000000e7        0x0 d:/program files - hdd/mplab compiler x32/bin/bin/../../lib/gcc/pic32mx/4.8.3/../../../../pic32mx/lib\libc.a(sprintf_cdnopuxX.eo)
 .debug_str     0x000000e7        0x0 d:/program files - hdd/mplab compiler x32/bin/bin/../../lib/gcc/pic32mx/4.8.3/../../../../pic32mx/lib\libc.a(sscanf_cdfFnopuxX.eo)
 .debug_str     0x000000e7        0x0 d:/program files - hdd/mplab compiler x32/bin/bin/../../lib/gcc/pic32mx/4.8.3/../../../../pic32mx/lib\libc.a(_iob.o)
 .debug_str     0x000000e7        0x0 d:/program files - hdd/mplab compiler x32/bin/bin/../../lib/gcc/pic32mx/4.8.3/../../../../pic32mx/lib\libc.a(_fputc_simple.o)
 .debug_str     0x000000e7        0x0 d:/program files - hdd/mplab compiler x32/bin/bin/../../lib/gcc/pic32mx/4.8.3/../../../../pic32mx/lib\libc.a(ctypef.o)
 .debug_str     0x000000e7        0x0 d:/program files - hdd/mplab compiler x32/bin/bin/../../lib/gcc/pic32mx/4.8.3/../../../../pic32mx/lib\libc.a(errno.o)
 .debug_str     0x000000e7        0x0 d:/program files - hdd/mplab compiler x32/bin/bin/../../lib/gcc/pic32mx/4.8.3/../../../../pic32mx/lib\libc.a(strncmp.o)
 .debug_str     0x000000e7        0x0 d:/program files - hdd/mplab compiler x32/bin/bin/../../lib/gcc/pic32mx/4.8.3/../../../../pic32mx/lib\libc.a(doprnt_cdfFnopsuxX.eo)
 .debug_str     0x000000e7        0x0 d:/program files - hdd/mplab compiler x32/bin/bin/../../lib/gcc/pic32mx/4.8.3/../../../../pic32mx/lib\libc.a(doscan_cdfFnopuxX.eo)
 .debug_str     0x000000e7        0x0 d:/program files - hdd/mplab compiler x32/bin/bin/../../lib/gcc/pic32mx/4.8.3/../../../../pic32mx/lib\libc.a(_flsbuf_simple.o)
 .debug_str     0x000000e7        0x0 d:/program files - hdd/mplab compiler x32/bin/bin/../../lib/gcc/pic32mx/4.8.3/../../../../pic32mx/lib\libc.a(fgetc.o)
 .debug_str     0x000000e7        0x0 d:/program files - hdd/mplab compiler x32/bin/bin/../../lib/gcc/pic32mx/4.8.3/../../../../pic32mx/lib\libc.a(atoi.o)
 .debug_str     0x000000e7        0x0 d:/program files - hdd/mplab compiler x32/bin/bin/../../lib/gcc/pic32mx/4.8.3/../../../../pic32mx/lib\libc.a(ldpowers.o)
 .debug_str     0x000000e7        0x9 d:/program files - hdd/mplab compiler x32/bin/bin/../../lib/gcc/pic32mx/4.8.3/../../../../pic32mx/lib\libc.a(strtod.o)
 .debug_str     0x000000f0        0x9 d:/program files - hdd/mplab compiler x32/bin/bin/../../lib/gcc/pic32mx/4.8.3/../../../../pic32mx/lib\libc.a(strtof.o)
 .debug_str     0x000000f9        0x0 d:/program files - hdd/mplab compiler x32/bin/bin/../../lib/gcc/pic32mx/4.8.3/../../../../pic32mx/lib\libc.a(ungetc.o)
 .debug_str     0x000000f9        0x0 d:/program files - hdd/mplab compiler x32/bin/bin/../../lib/gcc/pic32mx/4.8.3/../../../../pic32mx/lib\libc.a(filbuf.o)
 .debug_str     0x000000f9        0x0 d:/program files - hdd/mplab compiler x32/bin/bin/../../lib/gcc/pic32mx/4.8.3/../../../../pic32mx/lib\libc.a(fflush.o)
 .debug_str     0x000000f9        0x0 d:/program files - hdd/mplab compiler x32/bin/bin/../../lib/gcc/pic32mx/4.8.3/../../../../pic32mx/lib\libm.a(w_atan2f.o)
 .debug_str     0x000000f9        0x0 d:/program files - hdd/mplab compiler x32/bin/bin/../../lib/gcc/pic32mx/4.8.3/../../../../pic32mx/lib\libm.a(__strtod.o)
 .debug_str     0x000000f9        0x0 d:/program files - hdd/mplab compiler x32/bin/bin/../../lib/gcc/pic32mx/4.8.3/../../../../pic32mx/lib\libm.a(__strtof.o)
 .debug_str     0x000000f9        0x0 d:/program files - hdd/mplab compiler x32/bin/bin/../../lib/gcc/pic32mx/4.8.3/../../../../pic32mx/lib\libm.a(support.o)
 .debug_str     0x000000f9        0x0 d:/program files - hdd/mplab compiler x32/bin/bin/../../lib/gcc/pic32mx/4.8.3/../../../../pic32mx/lib\libe.a(_fixunsdfdi.o)
 .debug_str     0x000000f9        0x0 d:/program files - hdd/mplab compiler x32/bin/bin/../../lib/gcc/pic32mx/4.8.3/../../../../pic32mx/lib\libe.a(_orderdf2.o)
 .debug_str     0x000000f9        0x0 d:/program files - hdd/mplab compiler x32/bin/bin/../../lib/gcc/pic32mx/4.8.3/../../../../pic32mx/lib\libe.a(_ldexp.o)
 .debug_str     0x000000f9        0x0 d:/program files - hdd/mplab compiler x32/bin/bin/../../lib/gcc/pic32mx/4.8.3/../../../../pic32mx/lib\libe.a(_ldexpf.o)
 .debug_str     0x000000f9        0x0 d:/program files - hdd/mplab compiler x32/bin/bin/../../lib/gcc/pic32mx/4.8.3/../../../../pic32mx/lib\libe.a(_fixdfdi.o)
 .debug_str     0x000000f9        0x0 d:/program files - hdd/mplab compiler x32/bin/bin/../../lib/gcc/pic32mx/4.8.3\libgcc.a(_lshrdi3.o)
 .debug_str     0x000000f9        0x0 d:/program files - hdd/mplab compiler x32/bin/bin/../../lib/gcc/pic32mx/4.8.3\libgcc.a(_ashldi3.o)
 .debug_str     0x000000f9        0x0 d:/program files - hdd/mplab compiler x32/bin/bin/../../lib/gcc/pic32mx/4.8.3\libgcc.a(_floatundidf.o)
 .debug_str     0x000000f9        0x0 d:/program files - hdd/mplab compiler x32/bin/bin/../../lib/gcc/pic32mx/4.8.3\libgcc.a(_udivdi3.o)
 .debug_str     0x000000f9        0x0 d:/program files - hdd/mplab compiler x32/bin/bin/../../lib/gcc/pic32mx/4.8.3\libgcc.a(_umoddi3.o)
 .debug_str     0x000000f9        0x0 d:/program files - hdd/mplab compiler x32/bin/bin/../../lib/gcc/pic32mx/4.8.3\libgcc.a(floatunsidf.o)
 .debug_str     0x000000f9        0x0 d:/program files - hdd/mplab compiler x32/bin/bin/../../lib/gcc/pic32mx/4.8.3/../../../../pic32mx/lib\libpic32.a(read.o)
 .debug_str     0x000000f9        0x0 d:/program files - hdd/mplab compiler x32/bin/bin/../../lib/gcc/pic32mx/4.8.3/../../../../pic32mx/lib\libpic32.a(write.o)
 .debug_str     0x000000f9        0x0 d:/program files - hdd/mplab compiler x32/bin/bin/../../lib/gcc/pic32mx/4.8.3/../../../../pic32mx/lib\libpic32.a(xc32_uart.o)

.debug_loc      0x00000000     0x1937
 *(.debug_loc)
 .debug_loc     0x00000000       0x2c d:/program files - hdd/mplab compiler x32/bin/bin/../../lib/gcc/pic32mx/4.8.3/../../../../pic32mx/lib\libpic32.a(default-bootstrap-exception-handler.o)
 .debug_loc     0x0000002c       0x2c d:/program files - hdd/mplab compiler x32/bin/bin/../../lib/gcc/pic32mx/4.8.3/../../../../pic32mx/lib\libpic32.a(default-general-exception-handler.o)
 .debug_loc     0x00000058       0x21 d:/program files - hdd/mplab compiler x32/bin/bin/../../lib/gcc/pic32mx/4.8.3/../../../../pic32mx/lib\libm.a(w_atan2f.o)
 .debug_loc     0x00000079       0x20 d:/program files - hdd/mplab compiler x32/bin/bin/../../lib/gcc/pic32mx/4.8.3/../../../../pic32mx/lib\libm.a(__strtod.o)
 .debug_loc     0x00000099       0x20 d:/program files - hdd/mplab compiler x32/bin/bin/../../lib/gcc/pic32mx/4.8.3/../../../../pic32mx/lib\libm.a(__strtof.o)
 .debug_loc     0x000000b9      0x141 d:/program files - hdd/mplab compiler x32/bin/bin/../../lib/gcc/pic32mx/4.8.3/../../../../pic32mx/lib\libm.a(support.o)
 .debug_loc     0x000001fa       0x20 d:/program files - hdd/mplab compiler x32/bin/bin/../../lib/gcc/pic32mx/4.8.3/../../../../pic32mx/lib\libe.a(_fixunsdfdi.o)
 .debug_loc     0x0000021a       0x20 d:/program files - hdd/mplab compiler x32/bin/bin/../../lib/gcc/pic32mx/4.8.3/../../../../pic32mx/lib\libe.a(_ldexp.o)
 .debug_loc     0x0000023a       0xbb d:/program files - hdd/mplab compiler x32/bin/bin/../../lib/gcc/pic32mx/4.8.3\libgcc.a(_lshrdi3.o)
 .debug_loc     0x000002f5       0x82 d:/program files - hdd/mplab compiler x32/bin/bin/../../lib/gcc/pic32mx/4.8.3\libgcc.a(_ashldi3.o)
 .debug_loc     0x00000377       0x41 d:/program files - hdd/mplab compiler x32/bin/bin/../../lib/gcc/pic32mx/4.8.3\libgcc.a(_floatundidf.o)
 .debug_loc     0x000003b8      0xa6a d:/program files - hdd/mplab compiler x32/bin/bin/../../lib/gcc/pic32mx/4.8.3\libgcc.a(_udivdi3.o)
 .debug_loc     0x00000e22      0xa3d d:/program files - hdd/mplab compiler x32/bin/bin/../../lib/gcc/pic32mx/4.8.3\libgcc.a(_umoddi3.o)
 .debug_loc     0x0000185f       0x80 d:/program files - hdd/mplab compiler x32/bin/bin/../../lib/gcc/pic32mx/4.8.3\libgcc.a(floatunsidf.o)
 .debug_loc     0x000018df       0x20 d:/program files - hdd/mplab compiler x32/bin/bin/../../lib/gcc/pic32mx/4.8.3/../../../../pic32mx/lib\libpic32.a(read.o)
 .debug_loc     0x000018ff       0x38 d:/program files - hdd/mplab compiler x32/bin/bin/../../lib/gcc/pic32mx/4.8.3/../../../../pic32mx/lib\libpic32.a(write.o)

.debug_macinfo
 *(.debug_macinfo)

.debug_weaknames
 *(.debug_weaknames)

.debug_funcnames
 *(.debug_funcnames)

.debug_typenames
 *(.debug_typenames)

.debug_varnames
 *(.debug_varnames)

.debug_pubtypes
 *(.debug_pubtypes)

.debug_ranges   0x00000000      0x750
 *(.debug_ranges)
 .debug_ranges  0x00000000       0x10 d:/program files - hdd/mplab compiler x32/bin/bin/../../lib/gcc/pic32mx/4.8.3/../../../../pic32mx/lib\libmchp_peripheral.a(read_core_timer_lib.o)
 .debug_ranges  0x00000010       0x18 d:/program files - hdd/mplab compiler x32/bin/bin/../../lib/gcc/pic32mx/4.8.3/../../../../pic32mx/lib\libmchp_peripheral_32MX370F512L.a(pcache.o)
 .debug_ranges  0x00000028       0x10 d:/program files - hdd/mplab compiler x32/bin/bin/../../lib/gcc/pic32mx/4.8.3/../../../../pic32mx/lib\libmchp_peripheral_32MX370F512L.a(int_configure_system_lib.o)
 .debug_ranges  0x00000038       0x10 d:/program files - hdd/mplab compiler x32/bin/bin/../../lib/gcc/pic32mx/4.8.3/../../../../pic32mx/lib\libmchp_peripheral_32MX370F512L.a(int_enable_interrupts_lib.o)
 .debug_ranges  0x00000048       0x10 d:/program files - hdd/mplab compiler x32/bin/bin/../../lib/gcc/pic32mx/4.8.3/../../../../pic32mx/lib\libmchp_peripheral_32MX370F512L.a(int_disable_interrupts_lib.o)
 .debug_ranges  0x00000058       0x10 d:/program files - hdd/mplab compiler x32/bin/bin/../../lib/gcc/pic32mx/4.8.3/../../../../pic32mx/lib\libmchp_peripheral_32MX370F512L.a(int_restore_interrupts_lib.o)
 .debug_ranges  0x00000068       0x50 d:/program files - hdd/mplab compiler x32/bin/bin/../../lib/gcc/pic32mx/4.8.3/../../../../pic32mx/lib\libmchp_peripheral_32MX370F512L.a(int_tbl_lib.o)
 .debug_ranges  0x000000b8       0x10 d:/program files - hdd/mplab compiler x32/bin/bin/../../lib/gcc/pic32mx/4.8.3/../../../../pic32mx/lib\libmchp_peripheral_32MX370F512L.a(dma_chn_set_ev_enable_flags_lib.o)
 .debug_ranges  0x000000c8       0x10 d:/program files - hdd/mplab compiler x32/bin/bin/../../lib/gcc/pic32mx/4.8.3/../../../../pic32mx/lib\libmchp_peripheral_32MX370F512L.a(dma_chn_open_lib.o)
 .debug_ranges  0x000000d8       0x10 d:/program files - hdd/mplab compiler x32/bin/bin/../../lib/gcc/pic32mx/4.8.3/../../../../pic32mx/lib\libmchp_peripheral_32MX370F512L.a(dma_chn_enable_lib.o)
 .debug_ranges  0x000000e8       0x10 d:/program files - hdd/mplab compiler x32/bin/bin/../../lib/gcc/pic32mx/4.8.3/../../../../pic32mx/lib\libmchp_peripheral_32MX370F512L.a(dma_chn_get_ev_flags_lib.o)
 .debug_ranges  0x000000f8       0x10 d:/program files - hdd/mplab compiler x32/bin/bin/../../lib/gcc/pic32mx/4.8.3/../../../../pic32mx/lib\libmchp_peripheral_32MX370F512L.a(dma_chn_write_event_control_flags_lib.o)
 .debug_ranges  0x00000108       0x10 d:/program files - hdd/mplab compiler x32/bin/bin/../../lib/gcc/pic32mx/4.8.3/../../../../pic32mx/lib\libmchp_peripheral_32MX370F512L.a(dma_chn_set_match_pattern_lib.o)
 .debug_ranges  0x00000118       0x10 d:/program files - hdd/mplab compiler x32/bin/bin/../../lib/gcc/pic32mx/4.8.3/../../../../pic32mx/lib\libmchp_peripheral_32MX370F512L.a(dma_chn_set_txfer_lib.o)
 .debug_ranges  0x00000128       0x10 d:/program files - hdd/mplab compiler x32/bin/bin/../../lib/gcc/pic32mx/4.8.3/../../../../pic32mx/lib\libmchp_peripheral_32MX370F512L.a(port_set_pins_digital_in_lib.o)
 .debug_ranges  0x00000138       0x10 d:/program files - hdd/mplab compiler x32/bin/bin/../../lib/gcc/pic32mx/4.8.3/../../../../pic32mx/lib\libmchp_peripheral_32MX370F512L.a(port_set_pins_digital_out_lib.o)
 .debug_ranges  0x00000148       0x48 d:/program files - hdd/mplab compiler x32/bin/bin/../../lib/gcc/pic32mx/4.8.3/../../../../pic32mx/lib\libmchp_peripheral_32MX370F512L.a(uart_lib.o)
 .debug_ranges  0x00000190       0x10 d:/program files - hdd/mplab compiler x32/bin/bin/../../lib/gcc/pic32mx/4.8.3/../../../../pic32mx/lib\libmchp_peripheral_32MX370F512L.a(I2CAcknowledgeByte.o)
 .debug_ranges  0x000001a0       0x10 d:/program files - hdd/mplab compiler x32/bin/bin/../../lib/gcc/pic32mx/4.8.3/../../../../pic32mx/lib\libmchp_peripheral_32MX370F512L.a(I2CAcknowledgeHasCompleted.o)
 .debug_ranges  0x000001b0       0x10 d:/program files - hdd/mplab compiler x32/bin/bin/../../lib/gcc/pic32mx/4.8.3/../../../../pic32mx/lib\libmchp_peripheral_32MX370F512L.a(I2CBusIsIdle.o)
 .debug_ranges  0x000001c0       0x10 d:/program files - hdd/mplab compiler x32/bin/bin/../../lib/gcc/pic32mx/4.8.3/../../../../pic32mx/lib\libmchp_peripheral_32MX370F512L.a(I2CByteWasAcknowledged.o)
 .debug_ranges  0x000001d0       0x10 d:/program files - hdd/mplab compiler x32/bin/bin/../../lib/gcc/pic32mx/4.8.3/../../../../pic32mx/lib\libmchp_peripheral_32MX370F512L.a(I2CEnable.o)
 .debug_ranges  0x000001e0       0x10 d:/program files - hdd/mplab compiler x32/bin/bin/../../lib/gcc/pic32mx/4.8.3/../../../../pic32mx/lib\libmchp_peripheral_32MX370F512L.a(I2CGetByte.o)
 .debug_ranges  0x000001f0       0x10 d:/program files - hdd/mplab compiler x32/bin/bin/../../lib/gcc/pic32mx/4.8.3/../../../../pic32mx/lib\libmchp_peripheral_32MX370F512L.a(I2CGetStatus.o)
 .debug_ranges  0x00000200       0x10 d:/program files - hdd/mplab compiler x32/bin/bin/../../lib/gcc/pic32mx/4.8.3/../../../../pic32mx/lib\libmchp_peripheral_32MX370F512L.a(I2CReceivedDataIsAvailable.o)
 .debug_ranges  0x00000210       0x10 d:/program files - hdd/mplab compiler x32/bin/bin/../../lib/gcc/pic32mx/4.8.3/../../../../pic32mx/lib\libmchp_peripheral_32MX370F512L.a(I2CReceiverEnable.o)
 .debug_ranges  0x00000220       0x10 d:/program files - hdd/mplab compiler x32/bin/bin/../../lib/gcc/pic32mx/4.8.3/../../../../pic32mx/lib\libmchp_peripheral_32MX370F512L.a(I2CRepeatStart.o)
 .debug_ranges  0x00000230       0x10 d:/program files - hdd/mplab compiler x32/bin/bin/../../lib/gcc/pic32mx/4.8.3/../../../../pic32mx/lib\libmchp_peripheral_32MX370F512L.a(I2CSendByte.o)
 .debug_ranges  0x00000240       0x10 d:/program files - hdd/mplab compiler x32/bin/bin/../../lib/gcc/pic32mx/4.8.3/../../../../pic32mx/lib\libmchp_peripheral_32MX370F512L.a(I2CSetFrequency.o)
 .debug_ranges  0x00000250       0x10 d:/program files - hdd/mplab compiler x32/bin/bin/../../lib/gcc/pic32mx/4.8.3/../../../../pic32mx/lib\libmchp_peripheral_32MX370F512L.a(I2CStart.o)
 .debug_ranges  0x00000260       0x10 d:/program files - hdd/mplab compiler x32/bin/bin/../../lib/gcc/pic32mx/4.8.3/../../../../pic32mx/lib\libmchp_peripheral_32MX370F512L.a(I2CStop.o)
 .debug_ranges  0x00000270       0x10 d:/program files - hdd/mplab compiler x32/bin/bin/../../lib/gcc/pic32mx/4.8.3/../../../../pic32mx/lib\libmchp_peripheral_32MX370F512L.a(I2CTransmissionHasCompleted.o)
 .debug_ranges  0x00000280       0x10 d:/program files - hdd/mplab compiler x32/bin/bin/../../lib/gcc/pic32mx/4.8.3/../../../../pic32mx/lib\libmchp_peripheral_32MX370F512L.a(I2CTransmitterIsReady.o)
 .debug_ranges  0x00000290       0x10 d:/program files - hdd/mplab compiler x32/bin/bin/../../lib/gcc/pic32mx/4.8.3/../../../../pic32mx/lib\libpic32.a(default-bootstrap-exception-handler.o)
 .debug_ranges  0x000002a0       0x10 d:/program files - hdd/mplab compiler x32/bin/bin/../../lib/gcc/pic32mx/4.8.3/../../../../pic32mx/lib\libpic32.a(default-on-reset.o)
 .debug_ranges  0x000002b0       0x10 d:/program files - hdd/mplab compiler x32/bin/bin/../../lib/gcc/pic32mx/4.8.3/../../../../pic32mx/lib\libpic32.a(default-on-bootstrap.o)
 .debug_ranges  0x000002c0       0x10 d:/program files - hdd/mplab compiler x32/bin/bin/../../lib/gcc/pic32mx/4.8.3/../../../../pic32mx/lib\libpic32.a(default-general-exception-handler.o)
 .debug_ranges  0x000002d0       0x10 d:/program files - hdd/mplab compiler x32/bin/bin/../../lib/gcc/pic32mx/4.8.3/../../../../pic32mx/lib\libpic32.a(defaultinterrupt.o)
 .debug_ranges  0x000002e0       0x18 d:/program files - hdd/mplab compiler x32/bin/bin/../../lib/gcc/pic32mx/4.8.3/../../../../pic32mx/lib\libc.a(puts.o)
 .debug_ranges  0x000002f8       0x10 d:/program files - hdd/mplab compiler x32/bin/bin/../../lib/gcc/pic32mx/4.8.3/../../../../pic32mx/lib\libc.a(strchr.o)
 .debug_ranges  0x00000308       0x10 d:/program files - hdd/mplab compiler x32/bin/bin/../../lib/gcc/pic32mx/4.8.3/../../../../pic32mx/lib\libc.a(strstr.o)
 .debug_ranges  0x00000318       0x18 d:/program files - hdd/mplab compiler x32/bin/bin/../../lib/gcc/pic32mx/4.8.3/../../../../pic32mx/lib\libc.a(strtol.o)
 .debug_ranges  0x00000330       0x10 d:/program files - hdd/mplab compiler x32/bin/bin/../../lib/gcc/pic32mx/4.8.3/../../../../pic32mx/lib\libc.a(printf_cdfFnopsuxX.eo)
 .debug_ranges  0x00000340       0x10 d:/program files - hdd/mplab compiler x32/bin/bin/../../lib/gcc/pic32mx/4.8.3/../../../../pic32mx/lib\libc.a(sprintf_cdnopuxX.eo)
 .debug_ranges  0x00000350       0x10 d:/program files - hdd/mplab compiler x32/bin/bin/../../lib/gcc/pic32mx/4.8.3/../../../../pic32mx/lib\libc.a(sscanf_cdfFnopuxX.eo)
 .debug_ranges  0x00000360       0x10 d:/program files - hdd/mplab compiler x32/bin/bin/../../lib/gcc/pic32mx/4.8.3/../../../../pic32mx/lib\libc.a(_fputc_simple.o)
 .debug_ranges  0x00000370       0x90 d:/program files - hdd/mplab compiler x32/bin/bin/../../lib/gcc/pic32mx/4.8.3/../../../../pic32mx/lib\libc.a(ctypef.o)
 .debug_ranges  0x00000400       0x10 d:/program files - hdd/mplab compiler x32/bin/bin/../../lib/gcc/pic32mx/4.8.3/../../../../pic32mx/lib\libc.a(strncmp.o)
 .debug_ranges  0x00000410       0x18 d:/program files - hdd/mplab compiler x32/bin/bin/../../lib/gcc/pic32mx/4.8.3/../../../../pic32mx/lib\libc.a(doprnt_cdfFnopsuxX.eo)
 .debug_ranges  0x00000428       0x20 d:/program files - hdd/mplab compiler x32/bin/bin/../../lib/gcc/pic32mx/4.8.3/../../../../pic32mx/lib\libc.a(doscan_cdfFnopuxX.eo)
 .debug_ranges  0x00000448       0x10 d:/program files - hdd/mplab compiler x32/bin/bin/../../lib/gcc/pic32mx/4.8.3/../../../../pic32mx/lib\libc.a(_flsbuf_simple.o)
 .debug_ranges  0x00000458       0x10 d:/program files - hdd/mplab compiler x32/bin/bin/../../lib/gcc/pic32mx/4.8.3/../../../../pic32mx/lib\libc.a(fgetc.o)
 .debug_ranges  0x00000468       0x10 d:/program files - hdd/mplab compiler x32/bin/bin/../../lib/gcc/pic32mx/4.8.3/../../../../pic32mx/lib\libc.a(atoi.o)
 .debug_ranges  0x00000478       0x18 d:/program files - hdd/mplab compiler x32/bin/bin/../../lib/gcc/pic32mx/4.8.3/../../../../pic32mx/lib\libc.a(strtod.o)
 .debug_ranges  0x00000490       0x18 d:/program files - hdd/mplab compiler x32/bin/bin/../../lib/gcc/pic32mx/4.8.3/../../../../pic32mx/lib\libc.a(strtof.o)
 .debug_ranges  0x000004a8       0x10 d:/program files - hdd/mplab compiler x32/bin/bin/../../lib/gcc/pic32mx/4.8.3/../../../../pic32mx/lib\libc.a(ungetc.o)
 .debug_ranges  0x000004b8       0x10 d:/program files - hdd/mplab compiler x32/bin/bin/../../lib/gcc/pic32mx/4.8.3/../../../../pic32mx/lib\libc.a(filbuf.o)
 .debug_ranges  0x000004c8       0x10 d:/program files - hdd/mplab compiler x32/bin/bin/../../lib/gcc/pic32mx/4.8.3/../../../../pic32mx/lib\libc.a(fflush.o)
 .debug_ranges  0x000004d8       0x10 d:/program files - hdd/mplab compiler x32/bin/bin/../../lib/gcc/pic32mx/4.8.3/../../../../pic32mx/lib\libm.a(w_atan2f.o)
 .debug_ranges  0x000004e8       0x10 d:/program files - hdd/mplab compiler x32/bin/bin/../../lib/gcc/pic32mx/4.8.3/../../../../pic32mx/lib\libm.a(__strtod.o)
 .debug_ranges  0x000004f8       0x10 d:/program files - hdd/mplab compiler x32/bin/bin/../../lib/gcc/pic32mx/4.8.3/../../../../pic32mx/lib\libm.a(__strtof.o)
 .debug_ranges  0x00000508       0x68 d:/program files - hdd/mplab compiler x32/bin/bin/../../lib/gcc/pic32mx/4.8.3/../../../../pic32mx/lib\libm.a(support.o)
 .debug_ranges  0x00000570       0x10 d:/program files - hdd/mplab compiler x32/bin/bin/../../lib/gcc/pic32mx/4.8.3/../../../../pic32mx/lib\libe.a(_fixunsdfdi.o)
 .debug_ranges  0x00000580       0x10 d:/program files - hdd/mplab compiler x32/bin/bin/../../lib/gcc/pic32mx/4.8.3/../../../../pic32mx/lib\libe.a(_orderdf2.o)
 .debug_ranges  0x00000590       0x10 d:/program files - hdd/mplab compiler x32/bin/bin/../../lib/gcc/pic32mx/4.8.3/../../../../pic32mx/lib\libe.a(_ldexp.o)
 .debug_ranges  0x000005a0       0x10 d:/program files - hdd/mplab compiler x32/bin/bin/../../lib/gcc/pic32mx/4.8.3/../../../../pic32mx/lib\libe.a(_ldexpf.o)
 .debug_ranges  0x000005b0       0x10 d:/program files - hdd/mplab compiler x32/bin/bin/../../lib/gcc/pic32mx/4.8.3/../../../../pic32mx/lib\libe.a(_fixdfdi.o)
 .debug_ranges  0x000005c0       0x98 d:/program files - hdd/mplab compiler x32/bin/bin/../../lib/gcc/pic32mx/4.8.3\libgcc.a(_udivdi3.o)
 .debug_ranges  0x00000658       0xd8 d:/program files - hdd/mplab compiler x32/bin/bin/../../lib/gcc/pic32mx/4.8.3\libgcc.a(_umoddi3.o)
 .debug_ranges  0x00000730       0x10 d:/program files - hdd/mplab compiler x32/bin/bin/../../lib/gcc/pic32mx/4.8.3/../../../../pic32mx/lib\libpic32.a(read.o)
 .debug_ranges  0x00000740       0x10 d:/program files - hdd/mplab compiler x32/bin/bin/../../lib/gcc/pic32mx/4.8.3/../../../../pic32mx/lib\libpic32.a(write.o)

.gnu.attributes
                0x00000000       0x10
 *(.gnu.attributes)
 .gnu.attributes
                0x00000000       0x10 build/default/production/_ext/1472/LCDlib.o
 .gnu.attributes
                0x00000010       0x10 build/default/production/_ext/1472/hardware.o
 .gnu.attributes
                0x00000020       0x10 build/default/production/_ext/1472/led7.o
 .gnu.attributes
                0x00000030       0x10 build/default/production/_ext/1472/main.o
 .gnu.attributes
                0x00000040       0x10 build/default/production/_ext/1472/swDelay.o
 .gnu.attributes
                0x00000050       0x10 build/default/production/_ext/1472/uart2.o
 .gnu.attributes
                0x00000060       0x10 build/default/production/_ext/1472/uart4.o
 .gnu.attributes
                0x00000070       0x10 build/default/production/_ext/1472/RC.o
 .gnu.attributes
                0x00000080       0x10 build/default/production/_ext/1472/Pot.o
 .gnu.attributes
                0x00000090       0x10 build/default/production/_ext/1472/GPS_I2C.o
 .gnu.attributes
                0x000000a0       0x10 build/default/production/_ext/1472/i2c_lib.o
 .gnu.attributes
                0x000000b0       0x10 build/default/production/_ext/1472/Gamepad.o
 .gnu.attributes
                0x000000c0       0x10 build/default/production/_ext/1472/ADC_TEMP.o
 .gnu.attributes
                0x000000d0       0x10 build/default/production/_ext/1472/CycleData.o
 .gnu.attributes
                0x000000e0       0x10 build/default/production/_ext/1472/Notice.o
 .gnu.attributes
                0x000000f0       0x10 build/default/production/_ext/1472/DMA_UART2.o
 .gnu.attributes
                0x00000100       0x10 build/default/production/_ext/1472/MAG3110.o
 .gnu.attributes
                0x00000110       0x10 build/default/production/_ext/1472/Stepper.o
 .gnu.attributes
                0x00000120       0x10 d:/program files - hdd/mplab compiler x32/bin/bin/../../lib/gcc/pic32mx/4.8.3/../../../../pic32mx/lib\libmchp_peripheral.a(read_core_timer_lib.o)
 .gnu.attributes
                0x00000130       0x10 d:/program files - hdd/mplab compiler x32/bin/bin/../../lib/gcc/pic32mx/4.8.3/../../../../pic32mx/lib\libmchp_peripheral_32MX370F512L.a(pcache.o)
 .gnu.attributes
                0x00000140       0x10 d:/program files - hdd/mplab compiler x32/bin/bin/../../lib/gcc/pic32mx/4.8.3/../../../../pic32mx/lib\libmchp_peripheral_32MX370F512L.a(int_configure_system_lib.o)
 .gnu.attributes
                0x00000150       0x10 d:/program files - hdd/mplab compiler x32/bin/bin/../../lib/gcc/pic32mx/4.8.3/../../../../pic32mx/lib\libmchp_peripheral_32MX370F512L.a(int_enable_interrupts_lib.o)
 .gnu.attributes
                0x00000160       0x10 d:/program files - hdd/mplab compiler x32/bin/bin/../../lib/gcc/pic32mx/4.8.3/../../../../pic32mx/lib\libmchp_peripheral_32MX370F512L.a(int_disable_interrupts_lib.o)
 .gnu.attributes
                0x00000170       0x10 d:/program files - hdd/mplab compiler x32/bin/bin/../../lib/gcc/pic32mx/4.8.3/../../../../pic32mx/lib\libmchp_peripheral_32MX370F512L.a(int_restore_interrupts_lib.o)
 .gnu.attributes
                0x00000180       0x10 d:/program files - hdd/mplab compiler x32/bin/bin/../../lib/gcc/pic32mx/4.8.3/../../../../pic32mx/lib\libmchp_peripheral_32MX370F512L.a(int_tbl_lib.o)
 .gnu.attributes
                0x00000190       0x10 d:/program files - hdd/mplab compiler x32/bin/bin/../../lib/gcc/pic32mx/4.8.3/../../../../pic32mx/lib\libmchp_peripheral_32MX370F512L.a(dma_chn_set_ev_enable_flags_lib.o)
 .gnu.attributes
                0x000001a0       0x10 d:/program files - hdd/mplab compiler x32/bin/bin/../../lib/gcc/pic32mx/4.8.3/../../../../pic32mx/lib\libmchp_peripheral_32MX370F512L.a(dma_chn_open_lib.o)
 .gnu.attributes
                0x000001b0       0x10 d:/program files - hdd/mplab compiler x32/bin/bin/../../lib/gcc/pic32mx/4.8.3/../../../../pic32mx/lib\libmchp_peripheral_32MX370F512L.a(dma_chn_enable_lib.o)
 .gnu.attributes
                0x000001c0       0x10 d:/program files - hdd/mplab compiler x32/bin/bin/../../lib/gcc/pic32mx/4.8.3/../../../../pic32mx/lib\libmchp_peripheral_32MX370F512L.a(dma_chn_get_ev_flags_lib.o)
 .gnu.attributes
                0x000001d0       0x10 d:/program files - hdd/mplab compiler x32/bin/bin/../../lib/gcc/pic32mx/4.8.3/../../../../pic32mx/lib\libmchp_peripheral_32MX370F512L.a(dma_chn_write_event_control_flags_lib.o)
 .gnu.attributes
                0x000001e0       0x10 d:/program files - hdd/mplab compiler x32/bin/bin/../../lib/gcc/pic32mx/4.8.3/../../../../pic32mx/lib\libmchp_peripheral_32MX370F512L.a(dma_chn_set_match_pattern_lib.o)
 .gnu.attributes
                0x000001f0       0x10 d:/program files - hdd/mplab compiler x32/bin/bin/../../lib/gcc/pic32mx/4.8.3/../../../../pic32mx/lib\libmchp_peripheral_32MX370F512L.a(dma_chn_set_txfer_lib.o)
 .gnu.attributes
                0x00000200       0x10 d:/program files - hdd/mplab compiler x32/bin/bin/../../lib/gcc/pic32mx/4.8.3/../../../../pic32mx/lib\libmchp_peripheral_32MX370F512L.a(dma_reg_map_tbl_lib.o)
 .gnu.attributes
                0x00000210       0x10 d:/program files - hdd/mplab compiler x32/bin/bin/../../lib/gcc/pic32mx/4.8.3/../../../../pic32mx/lib\libmchp_peripheral_32MX370F512L.a(port_set_pins_digital_in_lib.o)
 .gnu.attributes
                0x00000220       0x10 d:/program files - hdd/mplab compiler x32/bin/bin/../../lib/gcc/pic32mx/4.8.3/../../../../pic32mx/lib\libmchp_peripheral_32MX370F512L.a(port_set_pins_digital_out_lib.o)
 .gnu.attributes
                0x00000230       0x10 d:/program files - hdd/mplab compiler x32/bin/bin/../../lib/gcc/pic32mx/4.8.3/../../../../pic32mx/lib\libmchp_peripheral_32MX370F512L.a(_ports_tbl_libp.o)
 .gnu.attributes
                0x00000240       0x10 d:/program files - hdd/mplab compiler x32/bin/bin/../../lib/gcc/pic32mx/4.8.3/../../../../pic32mx/lib\libmchp_peripheral_32MX370F512L.a(uart_lib.o)
 .gnu.attributes
                0x00000250       0x10 d:/program files - hdd/mplab compiler x32/bin/bin/../../lib/gcc/pic32mx/4.8.3/../../../../pic32mx/lib\libmchp_peripheral_32MX370F512L.a(I2CAcknowledgeByte.o)
 .gnu.attributes
                0x00000260       0x10 d:/program files - hdd/mplab compiler x32/bin/bin/../../lib/gcc/pic32mx/4.8.3/../../../../pic32mx/lib\libmchp_peripheral_32MX370F512L.a(I2CAcknowledgeHasCompleted.o)
 .gnu.attributes
                0x00000270       0x10 d:/program files - hdd/mplab compiler x32/bin/bin/../../lib/gcc/pic32mx/4.8.3/../../../../pic32mx/lib\libmchp_peripheral_32MX370F512L.a(I2CBusIsIdle.o)
 .gnu.attributes
                0x00000280       0x10 d:/program files - hdd/mplab compiler x32/bin/bin/../../lib/gcc/pic32mx/4.8.3/../../../../pic32mx/lib\libmchp_peripheral_32MX370F512L.a(I2CByteWasAcknowledged.o)
 .gnu.attributes
                0x00000290       0x10 d:/program files - hdd/mplab compiler x32/bin/bin/../../lib/gcc/pic32mx/4.8.3/../../../../pic32mx/lib\libmchp_peripheral_32MX370F512L.a(I2CEnable.o)
 .gnu.attributes
                0x000002a0       0x10 d:/program files - hdd/mplab compiler x32/bin/bin/../../lib/gcc/pic32mx/4.8.3/../../../../pic32mx/lib\libmchp_peripheral_32MX370F512L.a(I2CGetByte.o)
 .gnu.attributes
                0x000002b0       0x10 d:/program files - hdd/mplab compiler x32/bin/bin/../../lib/gcc/pic32mx/4.8.3/../../../../pic32mx/lib\libmchp_peripheral_32MX370F512L.a(I2CGetStatus.o)
 .gnu.attributes
                0x000002c0       0x10 d:/program files - hdd/mplab compiler x32/bin/bin/../../lib/gcc/pic32mx/4.8.3/../../../../pic32mx/lib\libmchp_peripheral_32MX370F512L.a(I2CReceivedDataIsAvailable.o)
 .gnu.attributes
                0x000002d0       0x10 d:/program files - hdd/mplab compiler x32/bin/bin/../../lib/gcc/pic32mx/4.8.3/../../../../pic32mx/lib\libmchp_peripheral_32MX370F512L.a(I2CReceiverEnable.o)
 .gnu.attributes
                0x000002e0       0x10 d:/program files - hdd/mplab compiler x32/bin/bin/../../lib/gcc/pic32mx/4.8.3/../../../../pic32mx/lib\libmchp_peripheral_32MX370F512L.a(I2CRepeatStart.o)
 .gnu.attributes
                0x000002f0       0x10 d:/program files - hdd/mplab compiler x32/bin/bin/../../lib/gcc/pic32mx/4.8.3/../../../../pic32mx/lib\libmchp_peripheral_32MX370F512L.a(I2CSendByte.o)
 .gnu.attributes
                0x00000300       0x10 d:/program files - hdd/mplab compiler x32/bin/bin/../../lib/gcc/pic32mx/4.8.3/../../../../pic32mx/lib\libmchp_peripheral_32MX370F512L.a(I2CSetFrequency.o)
 .gnu.attributes
                0x00000310       0x10 d:/program files - hdd/mplab compiler x32/bin/bin/../../lib/gcc/pic32mx/4.8.3/../../../../pic32mx/lib\libmchp_peripheral_32MX370F512L.a(I2CStart.o)
 .gnu.attributes
                0x00000320       0x10 d:/program files - hdd/mplab compiler x32/bin/bin/../../lib/gcc/pic32mx/4.8.3/../../../../pic32mx/lib\libmchp_peripheral_32MX370F512L.a(I2CStop.o)
 .gnu.attributes
                0x00000330       0x10 d:/program files - hdd/mplab compiler x32/bin/bin/../../lib/gcc/pic32mx/4.8.3/../../../../pic32mx/lib\libmchp_peripheral_32MX370F512L.a(I2CTransmissionHasCompleted.o)
 .gnu.attributes
                0x00000340       0x10 d:/program files - hdd/mplab compiler x32/bin/bin/../../lib/gcc/pic32mx/4.8.3/../../../../pic32mx/lib\libmchp_peripheral_32MX370F512L.a(I2CTransmitterIsReady.o)
 .gnu.attributes
                0x00000350       0x10 d:/program files - hdd/mplab compiler x32/bin/bin/../../lib/gcc/pic32mx/4.8.3/../../../../pic32mx/lib\libmchp_peripheral_32MX370F512L.a(I2CPrivate.o)
 .gnu.attributes
                0x00000360       0x10 d:/program files - hdd/mplab compiler x32/bin/bin/../../lib/gcc/pic32mx/4.8.3/../../../../pic32mx/lib\libpic32.a(default-bootstrap-exception-handler.o)
 .gnu.attributes
                0x00000370       0x10 d:/program files - hdd/mplab compiler x32/bin/bin/../../lib/gcc/pic32mx/4.8.3/../../../../pic32mx/lib\libpic32.a(default-on-reset.o)
 .gnu.attributes
                0x00000380       0x10 d:/program files - hdd/mplab compiler x32/bin/bin/../../lib/gcc/pic32mx/4.8.3/../../../../pic32mx/lib\libpic32.a(default-on-bootstrap.o)
 .gnu.attributes
                0x00000390       0x10 d:/program files - hdd/mplab compiler x32/bin/bin/../../lib/gcc/pic32mx/4.8.3/../../../../pic32mx/lib\libpic32.a(default-general-exception-handler.o)
 .gnu.attributes
                0x000003a0       0x10 d:/program files - hdd/mplab compiler x32/bin/bin/../../lib/gcc/pic32mx/4.8.3/../../../../pic32mx/lib\libpic32.a(defaultinterrupt.o)
 .gnu.attributes
                0x000003b0       0x10 d:/program files - hdd/mplab compiler x32/bin/bin/../../lib/gcc/pic32mx/4.8.3/../../../../pic32mx/lib\libc.a(ctype.o)
 .gnu.attributes
                0x000003c0       0x10 d:/program files - hdd/mplab compiler x32/bin/bin/../../lib/gcc/pic32mx/4.8.3/../../../../pic32mx/lib\libc.a(puts.o)
 .gnu.attributes
                0x000003d0       0x10 d:/program files - hdd/mplab compiler x32/bin/bin/../../lib/gcc/pic32mx/4.8.3/../../../../pic32mx/lib\libc.a(strchr.o)
 .gnu.attributes
                0x000003e0       0x10 d:/program files - hdd/mplab compiler x32/bin/bin/../../lib/gcc/pic32mx/4.8.3/../../../../pic32mx/lib\libc.a(strstr.o)
 .gnu.attributes
                0x000003f0       0x10 d:/program files - hdd/mplab compiler x32/bin/bin/../../lib/gcc/pic32mx/4.8.3/../../../../pic32mx/lib\libc.a(strtol.o)
 .gnu.attributes
                0x00000400       0x10 d:/program files - hdd/mplab compiler x32/bin/bin/../../lib/gcc/pic32mx/4.8.3/../../../../pic32mx/lib\libc.a(printf_cdfFnopsuxX.eo)
 .gnu.attributes
                0x00000410       0x10 d:/program files - hdd/mplab compiler x32/bin/bin/../../lib/gcc/pic32mx/4.8.3/../../../../pic32mx/lib\libc.a(sprintf_cdnopuxX.eo)
 .gnu.attributes
                0x00000420       0x10 d:/program files - hdd/mplab compiler x32/bin/bin/../../lib/gcc/pic32mx/4.8.3/../../../../pic32mx/lib\libc.a(sscanf_cdfFnopuxX.eo)
 .gnu.attributes
                0x00000430       0x10 d:/program files - hdd/mplab compiler x32/bin/bin/../../lib/gcc/pic32mx/4.8.3/../../../../pic32mx/lib\libc.a(_iob.o)
 .gnu.attributes
                0x00000440       0x10 d:/program files - hdd/mplab compiler x32/bin/bin/../../lib/gcc/pic32mx/4.8.3/../../../../pic32mx/lib\libc.a(_fputc_simple.o)
 .gnu.attributes
                0x00000450       0x10 d:/program files - hdd/mplab compiler x32/bin/bin/../../lib/gcc/pic32mx/4.8.3/../../../../pic32mx/lib\libc.a(ctypef.o)
 .gnu.attributes
                0x00000460       0x10 d:/program files - hdd/mplab compiler x32/bin/bin/../../lib/gcc/pic32mx/4.8.3/../../../../pic32mx/lib\libc.a(errno.o)
 .gnu.attributes
                0x00000470       0x10 d:/program files - hdd/mplab compiler x32/bin/bin/../../lib/gcc/pic32mx/4.8.3/../../../../pic32mx/lib\libc.a(strncmp.o)
 .gnu.attributes
                0x00000480       0x10 d:/program files - hdd/mplab compiler x32/bin/bin/../../lib/gcc/pic32mx/4.8.3/../../../../pic32mx/lib\libc.a(doprnt_cdfFnopsuxX.eo)
 .gnu.attributes
                0x00000490       0x10 d:/program files - hdd/mplab compiler x32/bin/bin/../../lib/gcc/pic32mx/4.8.3/../../../../pic32mx/lib\libc.a(doscan_cdfFnopuxX.eo)
 .gnu.attributes
                0x000004a0       0x10 d:/program files - hdd/mplab compiler x32/bin/bin/../../lib/gcc/pic32mx/4.8.3/../../../../pic32mx/lib\libc.a(_flsbuf_simple.o)
 .gnu.attributes
                0x000004b0       0x10 d:/program files - hdd/mplab compiler x32/bin/bin/../../lib/gcc/pic32mx/4.8.3/../../../../pic32mx/lib\libc.a(fgetc.o)
 .gnu.attributes
                0x000004c0       0x10 d:/program files - hdd/mplab compiler x32/bin/bin/../../lib/gcc/pic32mx/4.8.3/../../../../pic32mx/lib\libc.a(atoi.o)
 .gnu.attributes
                0x000004d0       0x10 d:/program files - hdd/mplab compiler x32/bin/bin/../../lib/gcc/pic32mx/4.8.3/../../../../pic32mx/lib\libc.a(ldpowers.o)
 .gnu.attributes
                0x000004e0       0x10 d:/program files - hdd/mplab compiler x32/bin/bin/../../lib/gcc/pic32mx/4.8.3/../../../../pic32mx/lib\libc.a(strtod.o)
 .gnu.attributes
                0x000004f0       0x10 d:/program files - hdd/mplab compiler x32/bin/bin/../../lib/gcc/pic32mx/4.8.3/../../../../pic32mx/lib\libc.a(strtof.o)
 .gnu.attributes
                0x00000500       0x10 d:/program files - hdd/mplab compiler x32/bin/bin/../../lib/gcc/pic32mx/4.8.3/../../../../pic32mx/lib\libc.a(ungetc.o)
 .gnu.attributes
                0x00000510       0x10 d:/program files - hdd/mplab compiler x32/bin/bin/../../lib/gcc/pic32mx/4.8.3/../../../../pic32mx/lib\libc.a(filbuf.o)
 .gnu.attributes
                0x00000520       0x10 d:/program files - hdd/mplab compiler x32/bin/bin/../../lib/gcc/pic32mx/4.8.3/../../../../pic32mx/lib\libc.a(fflush.o)
 .gnu.attributes
                0x00000530       0x10 d:/program files - hdd/mplab compiler x32/bin/bin/../../lib/gcc/pic32mx/4.8.3/../../../../pic32mx/lib\libm.a(w_atan2f.o)
 .gnu.attributes
                0x00000540       0x10 d:/program files - hdd/mplab compiler x32/bin/bin/../../lib/gcc/pic32mx/4.8.3/../../../../pic32mx/lib\libm.a(__strtod.o)
 .gnu.attributes
                0x00000550       0x10 d:/program files - hdd/mplab compiler x32/bin/bin/../../lib/gcc/pic32mx/4.8.3/../../../../pic32mx/lib\libm.a(__strtof.o)
 .gnu.attributes
                0x00000560       0x10 d:/program files - hdd/mplab compiler x32/bin/bin/../../lib/gcc/pic32mx/4.8.3/../../../../pic32mx/lib\libm.a(support.o)
 .gnu.attributes
                0x00000570       0x10 d:/program files - hdd/mplab compiler x32/bin/bin/../../lib/gcc/pic32mx/4.8.3/../../../../pic32mx/lib\libe.a(_fixunsdfdi.o)
 .gnu.attributes
                0x00000580       0x10 d:/program files - hdd/mplab compiler x32/bin/bin/../../lib/gcc/pic32mx/4.8.3/../../../../pic32mx/lib\libe.a(_orderdf2.o)
 .gnu.attributes
                0x00000590       0x10 d:/program files - hdd/mplab compiler x32/bin/bin/../../lib/gcc/pic32mx/4.8.3/../../../../pic32mx/lib\libe.a(_ldexp.o)
 .gnu.attributes
                0x000005a0       0x10 d:/program files - hdd/mplab compiler x32/bin/bin/../../lib/gcc/pic32mx/4.8.3/../../../../pic32mx/lib\libe.a(_ldexpf.o)
 .gnu.attributes
                0x000005b0       0x10 d:/program files - hdd/mplab compiler x32/bin/bin/../../lib/gcc/pic32mx/4.8.3/../../../../pic32mx/lib\libe.a(_fixdfdi.o)
 .gnu.attributes
                0x000005c0       0x10 d:/program files - hdd/mplab compiler x32/bin/bin/../../lib/gcc/pic32mx/4.8.3\libgcc.a(_lshrdi3.o)
 .gnu.attributes
                0x000005d0       0x10 d:/program files - hdd/mplab compiler x32/bin/bin/../../lib/gcc/pic32mx/4.8.3\libgcc.a(_ashldi3.o)
 .gnu.attributes
                0x000005e0       0x10 d:/program files - hdd/mplab compiler x32/bin/bin/../../lib/gcc/pic32mx/4.8.3\libgcc.a(_floatundidf.o)
 .gnu.attributes
                0x000005f0       0x10 d:/program files - hdd/mplab compiler x32/bin/bin/../../lib/gcc/pic32mx/4.8.3\libgcc.a(_udivdi3.o)
 .gnu.attributes
                0x00000600       0x10 d:/program files - hdd/mplab compiler x32/bin/bin/../../lib/gcc/pic32mx/4.8.3\libgcc.a(_umoddi3.o)
 .gnu.attributes
                0x00000610       0x10 d:/program files - hdd/mplab compiler x32/bin/bin/../../lib/gcc/pic32mx/4.8.3\libgcc.a(floatunsidf.o)
 .gnu.attributes
                0x00000620       0x10 d:/program files - hdd/mplab compiler x32/bin/bin/../../lib/gcc/pic32mx/4.8.3/../../../../pic32mx/lib\libpic32.a(read.o)
 .gnu.attributes
                0x00000630       0x10 d:/program files - hdd/mplab compiler x32/bin/bin/../../lib/gcc/pic32mx/4.8.3/../../../../pic32mx/lib\libpic32.a(write.o)
 .gnu.attributes
                0x00000640       0x10 d:/program files - hdd/mplab compiler x32/bin/bin/../../lib/gcc/pic32mx/4.8.3/../../../../pic32mx/lib\libpic32.a(xc32_uart.o)
LOAD d:/program files - hdd/mplab compiler x32/bin/bin/../../lib/gcc/pic32mx/4.8.3\libgcc.a
START GROUP
LOAD d:/program files - hdd/mplab compiler x32/bin/bin/../../lib/gcc/pic32mx/4.8.3/../../../../pic32mx/lib\libpic32.a
LOAD d:/program files - hdd/mplab compiler x32/bin/bin/../../lib/gcc/pic32mx/4.8.3/../../../../pic32mx/lib\libdebug.a
LOAD d:/program files - hdd/mplab compiler x32/bin/bin/../../lib/gcc/pic32mx/4.8.3/../../../../pic32mx/lib\libpic32.a
LOAD d:/program files - hdd/mplab compiler x32/bin/bin/../../lib/gcc/pic32mx/4.8.3/../../../../pic32mx/lib\libc.a
LOAD d:/program files - hdd/mplab compiler x32/bin/bin/../../lib/gcc/pic32mx/4.8.3/../../../../pic32mx/lib\libc.a
LOAD d:/program files - hdd/mplab compiler x32/bin/bin/../../lib/gcc/pic32mx/4.8.3/../../../../pic32mx/lib\libm.a
LOAD d:/program files - hdd/mplab compiler x32/bin/bin/../../lib/gcc/pic32mx/4.8.3/../../../../pic32mx/lib\libe.a
LOAD d:/program files - hdd/mplab compiler x32/bin/bin/../../lib/gcc/pic32mx/4.8.3/../../../../pic32mx/lib\libdsp.a
LOAD d:/program files - hdd/mplab compiler x32/bin/bin/../../lib/gcc/pic32mx/4.8.3\libgcc.a
LOAD d:/program files - hdd/mplab compiler x32/bin/bin/../../lib/gcc/pic32mx/4.8.3/../../../../pic32mx/lib\libpic32.a
END GROUP
LOAD d:/program files - hdd/mplab compiler x32/bin/bin/../../lib/gcc/pic32mx/4.8.3\libgcc.a
OUTPUT(dist/default/production/XB.X.production.elf elf32-tradlittlemips)
LOAD stack
LOAD data_init

.reginfo        0x00000000       0x18
 .reginfo       0x00000000       0x18 d:/program files - hdd/mplab compiler x32/bin/bin/../../lib/gcc/pic32mx/4.8.3/../../../../pic32mx/lib/./proc/32MX370F512L/crt0_mips32r2.o

.stack          0xa00012d0      0x400
 .stack         0xa00012d0      0x400 stack

.bss            0xa0000438      0x348
 .bss           0xa0000438      0x248 build/default/production/_ext/1472/Gamepad.o
 .bss           0xa0000680      0x100 build/default/production/_ext/1472/main.o
                0xa0000680                gpsStr

.bss            0xa0000780      0x100
 .bss           0xa0000780      0x100 build/default/production/_ext/1472/GPS_I2C.o

.data           0xa0000880      0x1a4
 .data          0xa0000880      0x100 d:/program files - hdd/mplab compiler x32/bin/bin/../../lib/gcc/pic32mx/4.8.3/../../../../pic32mx/lib\libm.a(fpexatan.o)
 .data          0xa0000980       0xa4 d:/program files - hdd/mplab compiler x32/bin/bin/../../lib/gcc/pic32mx/4.8.3/../../../../pic32mx/lib\libc.a(_iob.o)
                0xa0000980                _Files
                0xa0000984                _iob

.bss            0xa0000a24       0x44
 .bss           0xa0000a24       0x44 d:/program files - hdd/mplab compiler x32/bin/bin/../../lib/gcc/pic32mx/4.8.3/../../../../pic32mx/lib\libc.a(_iob.o)
                0xa0000a24                _sobuf
                0xa0000a44                _sibuf
                0xa0000a64                _outdone

.data           0xa0000a68       0x40
 .data          0xa0000a68       0x40 build/default/production/_ext/1472/LCDlib.o
                0xa0000a68                lcd_blks

.bss.errno      0xa0000aa8        0x4
 .bss.errno     0xa0000aa8        0x4 d:/program files - hdd/mplab compiler x32/bin/bin/../../lib/gcc/pic32mx/4.8.3/../../../../pic32mx/lib\libc.a(errno.o)
                0xa0000aa8                errno

.bss            0xa0000aac        0x4
 .bss           0xa0000aac        0x4 d:/program files - hdd/mplab compiler x32/bin/bin/../../lib/gcc/pic32mx/4.8.3/../../../../pic32mx/lib\libc.a(doscan_cdfFnopuxX.eo)

.bss            0x00000000        0x0
 .bss           0x00000000        0x0 d:/program files - hdd/mplab compiler x32/bin/bin/../../lib/gcc/pic32mx/4.8.3/../../../../pic32mx/lib\libpic32.a(xc32_uart.o)

.data           0x00000000        0x0
 .data          0x00000000        0x0 d:/program files - hdd/mplab compiler x32/bin/bin/../../lib/gcc/pic32mx/4.8.3/../../../../pic32mx/lib\libpic32.a(xc32_uart.o)

.bss            0x00000000        0x0
 .bss           0x00000000        0x0 d:/program files - hdd/mplab compiler x32/bin/bin/../../lib/gcc/pic32mx/4.8.3/../../../../pic32mx/lib\libpic32.a(write.o)

.data           0x00000000        0x0
 .data          0x00000000        0x0 d:/program files - hdd/mplab compiler x32/bin/bin/../../lib/gcc/pic32mx/4.8.3/../../../../pic32mx/lib\libpic32.a(write.o)

.bss            0x00000000        0x0
 .bss           0x00000000        0x0 d:/program files - hdd/mplab compiler x32/bin/bin/../../lib/gcc/pic32mx/4.8.3/../../../../pic32mx/lib\libpic32.a(read.o)

.data           0x00000000        0x0
 .data          0x00000000        0x0 d:/program files - hdd/mplab compiler x32/bin/bin/../../lib/gcc/pic32mx/4.8.3/../../../../pic32mx/lib\libpic32.a(read.o)

.bss            0x00000000        0x0
 .bss           0x00000000        0x0 d:/program files - hdd/mplab compiler x32/bin/bin/../../lib/gcc/pic32mx/4.8.3\libgcc.a(floatunsidf.o)

.data           0x00000000        0x0
 .data          0x00000000        0x0 d:/program files - hdd/mplab compiler x32/bin/bin/../../lib/gcc/pic32mx/4.8.3\libgcc.a(floatunsidf.o)

.bss            0x00000000        0x0
 .bss           0x00000000        0x0 d:/program files - hdd/mplab compiler x32/bin/bin/../../lib/gcc/pic32mx/4.8.3\libgcc.a(_umoddi3.o)

.data           0x00000000        0x0
 .data          0x00000000        0x0 d:/program files - hdd/mplab compiler x32/bin/bin/../../lib/gcc/pic32mx/4.8.3\libgcc.a(_umoddi3.o)

.bss            0x00000000        0x0
 .bss           0x00000000        0x0 d:/program files - hdd/mplab compiler x32/bin/bin/../../lib/gcc/pic32mx/4.8.3\libgcc.a(_udivdi3.o)

.data           0x00000000        0x0
 .data          0x00000000        0x0 d:/program files - hdd/mplab compiler x32/bin/bin/../../lib/gcc/pic32mx/4.8.3\libgcc.a(_udivdi3.o)

.bss            0x00000000        0x0
 .bss           0x00000000        0x0 d:/program files - hdd/mplab compiler x32/bin/bin/../../lib/gcc/pic32mx/4.8.3\libgcc.a(_floatundidf.o)

.data           0x00000000        0x0
 .data          0x00000000        0x0 d:/program files - hdd/mplab compiler x32/bin/bin/../../lib/gcc/pic32mx/4.8.3\libgcc.a(_floatundidf.o)

.bss            0x00000000        0x0
 .bss           0x00000000        0x0 d:/program files - hdd/mplab compiler x32/bin/bin/../../lib/gcc/pic32mx/4.8.3\libgcc.a(_ashldi3.o)

.data           0x00000000        0x0
 .data          0x00000000        0x0 d:/program files - hdd/mplab compiler x32/bin/bin/../../lib/gcc/pic32mx/4.8.3\libgcc.a(_ashldi3.o)

.bss            0x00000000        0x0
 .bss           0x00000000        0x0 d:/program files - hdd/mplab compiler x32/bin/bin/../../lib/gcc/pic32mx/4.8.3\libgcc.a(_lshrdi3.o)

.data           0x00000000        0x0
 .data          0x00000000        0x0 d:/program files - hdd/mplab compiler x32/bin/bin/../../lib/gcc/pic32mx/4.8.3\libgcc.a(_lshrdi3.o)

.bss            0x00000000        0x0
 .bss           0x00000000        0x0 d:/program files - hdd/mplab compiler x32/bin/bin/../../lib/gcc/pic32mx/4.8.3/../../../../pic32mx/lib\libe.a(_fixdfdi.o)

.data           0x00000000        0x0
 .data          0x00000000        0x0 d:/program files - hdd/mplab compiler x32/bin/bin/../../lib/gcc/pic32mx/4.8.3/../../../../pic32mx/lib\libe.a(_fixdfdi.o)

.bss            0x00000000        0x0
 .bss           0x00000000        0x0 d:/program files - hdd/mplab compiler x32/bin/bin/../../lib/gcc/pic32mx/4.8.3/../../../../pic32mx/lib\libe.a(_ldexpf.o)

.data           0x00000000        0x0
 .data          0x00000000        0x0 d:/program files - hdd/mplab compiler x32/bin/bin/../../lib/gcc/pic32mx/4.8.3/../../../../pic32mx/lib\libe.a(_ldexpf.o)

.bss            0x00000000        0x0
 .bss           0x00000000        0x0 d:/program files - hdd/mplab compiler x32/bin/bin/../../lib/gcc/pic32mx/4.8.3/../../../../pic32mx/lib\libe.a(_ldexp.o)

.data           0x00000000        0x0
 .data          0x00000000        0x0 d:/program files - hdd/mplab compiler x32/bin/bin/../../lib/gcc/pic32mx/4.8.3/../../../../pic32mx/lib\libe.a(_ldexp.o)

.bss            0x00000000        0x0
 .bss           0x00000000        0x0 d:/program files - hdd/mplab compiler x32/bin/bin/../../lib/gcc/pic32mx/4.8.3/../../../../pic32mx/lib\libe.a(_orderdf2.o)

.data           0x00000000        0x0
 .data          0x00000000        0x0 d:/program files - hdd/mplab compiler x32/bin/bin/../../lib/gcc/pic32mx/4.8.3/../../../../pic32mx/lib\libe.a(_orderdf2.o)

.bss            0x00000000        0x0
 .bss           0x00000000        0x0 d:/program files - hdd/mplab compiler x32/bin/bin/../../lib/gcc/pic32mx/4.8.3/../../../../pic32mx/lib\libe.a(_fixunsdfdi.o)

.data           0x00000000        0x0
 .data          0x00000000        0x0 d:/program files - hdd/mplab compiler x32/bin/bin/../../lib/gcc/pic32mx/4.8.3/../../../../pic32mx/lib\libe.a(_fixunsdfdi.o)

.bss            0x00000000        0x0
 .bss           0x00000000        0x0 d:/program files - hdd/mplab compiler x32/bin/bin/../../lib/gcc/pic32mx/4.8.3/../../../../pic32mx/lib\libm.a(negsf2.o)

.data           0x00000000        0x0
 .data          0x00000000        0x0 d:/program files - hdd/mplab compiler x32/bin/bin/../../lib/gcc/pic32mx/4.8.3/../../../../pic32mx/lib\libm.a(negsf2.o)

.bss            0x00000000        0x0
 .bss           0x00000000        0x0 d:/program files - hdd/mplab compiler x32/bin/bin/../../lib/gcc/pic32mx/4.8.3/../../../../pic32mx/lib\libm.a(negdf2.o)

.data           0x00000000        0x0
 .data          0x00000000        0x0 d:/program files - hdd/mplab compiler x32/bin/bin/../../lib/gcc/pic32mx/4.8.3/../../../../pic32mx/lib\libm.a(negdf2.o)

.bss            0x00000000        0x0
 .bss           0x00000000        0x0 d:/program files - hdd/mplab compiler x32/bin/bin/../../lib/gcc/pic32mx/4.8.3/../../../../pic32mx/lib\libm.a(litodp.o)

.data           0x00000000        0x0
 .data          0x00000000        0x0 d:/program files - hdd/mplab compiler x32/bin/bin/../../lib/gcc/pic32mx/4.8.3/../../../../pic32mx/lib\libm.a(litodp.o)

.bss            0x00000000        0x0
 .bss           0x00000000        0x0 d:/program files - hdd/mplab compiler x32/bin/bin/../../lib/gcc/pic32mx/4.8.3/../../../../pic32mx/lib\libm.a(fpexsqrt32.o)

.data           0x00000000        0x0
 .data          0x00000000        0x0 d:/program files - hdd/mplab compiler x32/bin/bin/../../lib/gcc/pic32mx/4.8.3/../../../../pic32mx/lib\libm.a(fpexsqrt32.o)

.bss            0x00000000        0x0
 .bss           0x00000000        0x0 d:/program files - hdd/mplab compiler x32/bin/bin/../../lib/gcc/pic32mx/4.8.3/../../../../pic32mx/lib\libm.a(fpexatan.o)

.bss            0x00000000        0x0
 .bss           0x00000000        0x0 d:/program files - hdd/mplab compiler x32/bin/bin/../../lib/gcc/pic32mx/4.8.3/../../../../pic32mx/lib\libm.a(fpatan2.o)

.data           0x00000000        0x0
 .data          0x00000000        0x0 d:/program files - hdd/mplab compiler x32/bin/bin/../../lib/gcc/pic32mx/4.8.3/../../../../pic32mx/lib\libm.a(fpatan2.o)

.bss            0x00000000        0x0
 .bss           0x00000000        0x0 d:/program files - hdd/mplab compiler x32/bin/bin/../../lib/gcc/pic32mx/4.8.3/../../../../pic32mx/lib\libm.a(dpldexp.o)

.data           0x00000000        0x0
 .data          0x00000000        0x0 d:/program files - hdd/mplab compiler x32/bin/bin/../../lib/gcc/pic32mx/4.8.3/../../../../pic32mx/lib\libm.a(dpldexp.o)

.bss            0x00000000        0x0
 .bss           0x00000000        0x0 d:/program files - hdd/mplab compiler x32/bin/bin/../../lib/gcc/pic32mx/4.8.3/../../../../pic32mx/lib\libm.a(support.o)

.data           0x00000000        0x0
 .data          0x00000000        0x0 d:/program files - hdd/mplab compiler x32/bin/bin/../../lib/gcc/pic32mx/4.8.3/../../../../pic32mx/lib\libm.a(support.o)

.bss            0x00000000        0x0
 .bss           0x00000000        0x0 d:/program files - hdd/mplab compiler x32/bin/bin/../../lib/gcc/pic32mx/4.8.3/../../../../pic32mx/lib\libm.a(__strtof.o)

.data           0x00000000        0x0
 .data          0x00000000        0x0 d:/program files - hdd/mplab compiler x32/bin/bin/../../lib/gcc/pic32mx/4.8.3/../../../../pic32mx/lib\libm.a(__strtof.o)

.bss            0x00000000        0x0
 .bss           0x00000000        0x0 d:/program files - hdd/mplab compiler x32/bin/bin/../../lib/gcc/pic32mx/4.8.3/../../../../pic32mx/lib\libm.a(__strtod.o)

.data           0x00000000        0x0
 .data          0x00000000        0x0 d:/program files - hdd/mplab compiler x32/bin/bin/../../lib/gcc/pic32mx/4.8.3/../../../../pic32mx/lib\libm.a(__strtod.o)

.bss            0x00000000        0x0
 .bss           0x00000000        0x0 d:/program files - hdd/mplab compiler x32/bin/bin/../../lib/gcc/pic32mx/4.8.3/../../../../pic32mx/lib\libm.a(w_atan2f.o)

.data           0x00000000        0x0
 .data          0x00000000        0x0 d:/program files - hdd/mplab compiler x32/bin/bin/../../lib/gcc/pic32mx/4.8.3/../../../../pic32mx/lib\libm.a(w_atan2f.o)

.bss            0x00000000        0x0
 .bss           0x00000000        0x0 d:/program files - hdd/mplab compiler x32/bin/bin/../../lib/gcc/pic32mx/4.8.3/../../../../pic32mx/lib\libm.a(sitofp.o)

.data           0x00000000        0x0
 .data          0x00000000        0x0 d:/program files - hdd/mplab compiler x32/bin/bin/../../lib/gcc/pic32mx/4.8.3/../../../../pic32mx/lib\libm.a(sitofp.o)

.bss            0x00000000        0x0
 .bss           0x00000000        0x0 d:/program files - hdd/mplab compiler x32/bin/bin/../../lib/gcc/pic32mx/4.8.3/../../../../pic32mx/lib\libm.a(fptoli.o)

.data           0x00000000        0x0
 .data          0x00000000        0x0 d:/program files - hdd/mplab compiler x32/bin/bin/../../lib/gcc/pic32mx/4.8.3/../../../../pic32mx/lib\libm.a(fptoli.o)

.bss            0x00000000        0x0
 .bss           0x00000000        0x0 d:/program files - hdd/mplab compiler x32/bin/bin/../../lib/gcc/pic32mx/4.8.3/../../../../pic32mx/lib\libm.a(fptodp.o)

.data           0x00000000        0x0
 .data          0x00000000        0x0 d:/program files - hdd/mplab compiler x32/bin/bin/../../lib/gcc/pic32mx/4.8.3/../../../../pic32mx/lib\libm.a(fptodp.o)

.bss            0x00000000        0x0
 .bss           0x00000000        0x0 d:/program files - hdd/mplab compiler x32/bin/bin/../../lib/gcc/pic32mx/4.8.3/../../../../pic32mx/lib\libm.a(fpcmp.o)

.data           0x00000000        0x0
 .data          0x00000000        0x0 d:/program files - hdd/mplab compiler x32/bin/bin/../../lib/gcc/pic32mx/4.8.3/../../../../pic32mx/lib\libm.a(fpcmp.o)

.bss            0x00000000        0x0
 .bss           0x00000000        0x0 d:/program files - hdd/mplab compiler x32/bin/bin/../../lib/gcc/pic32mx/4.8.3/../../../../pic32mx/lib\libm.a(fp32subadd.o)

.data           0x00000000        0x0
 .data          0x00000000        0x0 d:/program files - hdd/mplab compiler x32/bin/bin/../../lib/gcc/pic32mx/4.8.3/../../../../pic32mx/lib\libm.a(fp32subadd.o)

.bss            0x00000000        0x0
 .bss           0x00000000        0x0 d:/program files - hdd/mplab compiler x32/bin/bin/../../lib/gcc/pic32mx/4.8.3/../../../../pic32mx/lib\libm.a(fp32mul.o)

.data           0x00000000        0x0
 .data          0x00000000        0x0 d:/program files - hdd/mplab compiler x32/bin/bin/../../lib/gcc/pic32mx/4.8.3/../../../../pic32mx/lib\libm.a(fp32mul.o)

.bss            0x00000000        0x0
 .bss           0x00000000        0x0 d:/program files - hdd/mplab compiler x32/bin/bin/../../lib/gcc/pic32mx/4.8.3/../../../../pic32mx/lib\libm.a(fp32div.o)

.data           0x00000000        0x0
 .data          0x00000000        0x0 d:/program files - hdd/mplab compiler x32/bin/bin/../../lib/gcc/pic32mx/4.8.3/../../../../pic32mx/lib\libm.a(fp32div.o)

.bss            0x00000000        0x0
 .bss           0x00000000        0x0 d:/program files - hdd/mplab compiler x32/bin/bin/../../lib/gcc/pic32mx/4.8.3/../../../../pic32mx/lib\libm.a(dptofp.o)

.data           0x00000000        0x0
 .data          0x00000000        0x0 d:/program files - hdd/mplab compiler x32/bin/bin/../../lib/gcc/pic32mx/4.8.3/../../../../pic32mx/lib\libm.a(dptofp.o)

.bss            0x00000000        0x0
 .bss           0x00000000        0x0 d:/program files - hdd/mplab compiler x32/bin/bin/../../lib/gcc/pic32mx/4.8.3/../../../../pic32mx/lib\libm.a(dpcmp.o)

.data           0x00000000        0x0
 .data          0x00000000        0x0 d:/program files - hdd/mplab compiler x32/bin/bin/../../lib/gcc/pic32mx/4.8.3/../../../../pic32mx/lib\libm.a(dpcmp.o)

.bss            0x00000000        0x0
 .bss           0x00000000        0x0 d:/program files - hdd/mplab compiler x32/bin/bin/../../lib/gcc/pic32mx/4.8.3/../../../../pic32mx/lib\libm.a(dp32subadd.o)

.data           0x00000000        0x0
 .data          0x00000000        0x0 d:/program files - hdd/mplab compiler x32/bin/bin/../../lib/gcc/pic32mx/4.8.3/../../../../pic32mx/lib\libm.a(dp32subadd.o)

.bss            0x00000000        0x0
 .bss           0x00000000        0x0 d:/program files - hdd/mplab compiler x32/bin/bin/../../lib/gcc/pic32mx/4.8.3/../../../../pic32mx/lib\libm.a(dp32mul.o)

.data           0x00000000        0x0
 .data          0x00000000        0x0 d:/program files - hdd/mplab compiler x32/bin/bin/../../lib/gcc/pic32mx/4.8.3/../../../../pic32mx/lib\libm.a(dp32mul.o)

.bss            0x00000000        0x0
 .bss           0x00000000        0x0 d:/program files - hdd/mplab compiler x32/bin/bin/../../lib/gcc/pic32mx/4.8.3/../../../../pic32mx/lib\libm.a(dp32div.o)

.data           0x00000000        0x0
 .data          0x00000000        0x0 d:/program files - hdd/mplab compiler x32/bin/bin/../../lib/gcc/pic32mx/4.8.3/../../../../pic32mx/lib\libm.a(dp32div.o)

.bss            0x00000000        0x0
 .bss           0x00000000        0x0 d:/program files - hdd/mplab compiler x32/bin/bin/../../lib/gcc/pic32mx/4.8.3/../../../../pic32mx/lib\libm.a(dpfrexp.o)

.data           0x00000000        0x0
 .data          0x00000000        0x0 d:/program files - hdd/mplab compiler x32/bin/bin/../../lib/gcc/pic32mx/4.8.3/../../../../pic32mx/lib\libm.a(dpfrexp.o)

.bss            0x00000000        0x0
 .bss           0x00000000        0x0 d:/program files - hdd/mplab compiler x32/bin/bin/../../lib/gcc/pic32mx/4.8.3/../../../../pic32mx/lib\libc.a(fflush.o)

.data           0x00000000        0x0
 .data          0x00000000        0x0 d:/program files - hdd/mplab compiler x32/bin/bin/../../lib/gcc/pic32mx/4.8.3/../../../../pic32mx/lib\libc.a(fflush.o)

.bss            0x00000000        0x0
 .bss           0x00000000        0x0 d:/program files - hdd/mplab compiler x32/bin/bin/../../lib/gcc/pic32mx/4.8.3/../../../../pic32mx/lib\libc.a(filbuf.o)

.data           0x00000000        0x0
 .data          0x00000000        0x0 d:/program files - hdd/mplab compiler x32/bin/bin/../../lib/gcc/pic32mx/4.8.3/../../../../pic32mx/lib\libc.a(filbuf.o)

.bss            0x00000000        0x0
 .bss           0x00000000        0x0 d:/program files - hdd/mplab compiler x32/bin/bin/../../lib/gcc/pic32mx/4.8.3/../../../../pic32mx/lib\libc.a(ungetc.o)

.data           0x00000000        0x0
 .data          0x00000000        0x0 d:/program files - hdd/mplab compiler x32/bin/bin/../../lib/gcc/pic32mx/4.8.3/../../../../pic32mx/lib\libc.a(ungetc.o)

.bss            0x00000000        0x0
 .bss           0x00000000        0x0 d:/program files - hdd/mplab compiler x32/bin/bin/../../lib/gcc/pic32mx/4.8.3/../../../../pic32mx/lib\libc.a(strtof.o)

.data           0x00000000        0x0
 .data          0x00000000        0x0 d:/program files - hdd/mplab compiler x32/bin/bin/../../lib/gcc/pic32mx/4.8.3/../../../../pic32mx/lib\libc.a(strtof.o)

.bss            0x00000000        0x0
 .bss           0x00000000        0x0 d:/program files - hdd/mplab compiler x32/bin/bin/../../lib/gcc/pic32mx/4.8.3/../../../../pic32mx/lib\libc.a(strtod.o)

.data           0x00000000        0x0
 .data          0x00000000        0x0 d:/program files - hdd/mplab compiler x32/bin/bin/../../lib/gcc/pic32mx/4.8.3/../../../../pic32mx/lib\libc.a(strtod.o)

.bss            0x00000000        0x0
 .bss           0x00000000        0x0 d:/program files - hdd/mplab compiler x32/bin/bin/../../lib/gcc/pic32mx/4.8.3/../../../../pic32mx/lib\libc.a(ldpowers.o)

.data           0x00000000        0x0
 .data          0x00000000        0x0 d:/program files - hdd/mplab compiler x32/bin/bin/../../lib/gcc/pic32mx/4.8.3/../../../../pic32mx/lib\libc.a(ldpowers.o)

.bss            0x00000000        0x0
 .bss           0x00000000        0x0 d:/program files - hdd/mplab compiler x32/bin/bin/../../lib/gcc/pic32mx/4.8.3/../../../../pic32mx/lib\libc.a(atoi.o)

.data           0x00000000        0x0
 .data          0x00000000        0x0 d:/program files - hdd/mplab compiler x32/bin/bin/../../lib/gcc/pic32mx/4.8.3/../../../../pic32mx/lib\libc.a(atoi.o)

.bss            0x00000000        0x0
 .bss           0x00000000        0x0 d:/program files - hdd/mplab compiler x32/bin/bin/../../lib/gcc/pic32mx/4.8.3/../../../../pic32mx/lib\libc.a(fgetc.o)

.data           0x00000000        0x0
 .data          0x00000000        0x0 d:/program files - hdd/mplab compiler x32/bin/bin/../../lib/gcc/pic32mx/4.8.3/../../../../pic32mx/lib\libc.a(fgetc.o)

.bss            0x00000000        0x0
 .bss           0x00000000        0x0 d:/program files - hdd/mplab compiler x32/bin/bin/../../lib/gcc/pic32mx/4.8.3/../../../../pic32mx/lib\libc.a(_flsbuf_simple.o)

.data           0x00000000        0x0
 .data          0x00000000        0x0 d:/program files - hdd/mplab compiler x32/bin/bin/../../lib/gcc/pic32mx/4.8.3/../../../../pic32mx/lib\libc.a(_flsbuf_simple.o)

.data           0x00000000        0x0
 .data          0x00000000        0x0 d:/program files - hdd/mplab compiler x32/bin/bin/../../lib/gcc/pic32mx/4.8.3/../../../../pic32mx/lib\libc.a(doscan_cdfFnopuxX.eo)

.bss            0x00000000        0x0
 .bss           0x00000000        0x0 d:/program files - hdd/mplab compiler x32/bin/bin/../../lib/gcc/pic32mx/4.8.3/../../../../pic32mx/lib\libc.a(doprnt_cdfFnopsuxX.eo)

.data           0x00000000        0x0
 .data          0x00000000        0x0 d:/program files - hdd/mplab compiler x32/bin/bin/../../lib/gcc/pic32mx/4.8.3/../../../../pic32mx/lib\libc.a(doprnt_cdfFnopsuxX.eo)

.bss            0x00000000        0x0
 .bss           0x00000000        0x0 d:/program files - hdd/mplab compiler x32/bin/bin/../../lib/gcc/pic32mx/4.8.3/../../../../pic32mx/lib\libc.a(strncmp.o)

.data           0x00000000        0x0
 .data          0x00000000        0x0 d:/program files - hdd/mplab compiler x32/bin/bin/../../lib/gcc/pic32mx/4.8.3/../../../../pic32mx/lib\libc.a(strncmp.o)

.bss            0x00000000        0x0
 .bss           0x00000000        0x0 d:/program files - hdd/mplab compiler x32/bin/bin/../../lib/gcc/pic32mx/4.8.3/../../../../pic32mx/lib\libc.a(errno.o)

.data           0x00000000        0x0
 .data          0x00000000        0x0 d:/program files - hdd/mplab compiler x32/bin/bin/../../lib/gcc/pic32mx/4.8.3/../../../../pic32mx/lib\libc.a(errno.o)

.bss            0x00000000        0x0
 .bss           0x00000000        0x0 d:/program files - hdd/mplab compiler x32/bin/bin/../../lib/gcc/pic32mx/4.8.3/../../../../pic32mx/lib\libc.a(ctypef.o)

.data           0x00000000        0x0
 .data          0x00000000        0x0 d:/program files - hdd/mplab compiler x32/bin/bin/../../lib/gcc/pic32mx/4.8.3/../../../../pic32mx/lib\libc.a(ctypef.o)

.bss            0x00000000        0x0
 .bss           0x00000000        0x0 d:/program files - hdd/mplab compiler x32/bin/bin/../../lib/gcc/pic32mx/4.8.3/../../../../pic32mx/lib\libc.a(_fputc_simple.o)

.data           0x00000000        0x0
 .data          0x00000000        0x0 d:/program files - hdd/mplab compiler x32/bin/bin/../../lib/gcc/pic32mx/4.8.3/../../../../pic32mx/lib\libc.a(_fputc_simple.o)

.bss            0x00000000        0x0
 .bss           0x00000000        0x0 d:/program files - hdd/mplab compiler x32/bin/bin/../../lib/gcc/pic32mx/4.8.3/../../../../pic32mx/lib\libc.a(sscanf_cdfFnopuxX.eo)

.data           0x00000000        0x0
 .data          0x00000000        0x0 d:/program files - hdd/mplab compiler x32/bin/bin/../../lib/gcc/pic32mx/4.8.3/../../../../pic32mx/lib\libc.a(sscanf_cdfFnopuxX.eo)

.bss            0x00000000        0x0
 .bss           0x00000000        0x0 d:/program files - hdd/mplab compiler x32/bin/bin/../../lib/gcc/pic32mx/4.8.3/../../../../pic32mx/lib\libc.a(sprintf_cdnopuxX.eo)

.data           0x00000000        0x0
 .data          0x00000000        0x0 d:/program files - hdd/mplab compiler x32/bin/bin/../../lib/gcc/pic32mx/4.8.3/../../../../pic32mx/lib\libc.a(sprintf_cdnopuxX.eo)

.bss            0x00000000        0x0
 .bss           0x00000000        0x0 d:/program files - hdd/mplab compiler x32/bin/bin/../../lib/gcc/pic32mx/4.8.3/../../../../pic32mx/lib\libc.a(printf_cdfFnopsuxX.eo)

.data           0x00000000        0x0
 .data          0x00000000        0x0 d:/program files - hdd/mplab compiler x32/bin/bin/../../lib/gcc/pic32mx/4.8.3/../../../../pic32mx/lib\libc.a(printf_cdfFnopsuxX.eo)

.bss            0x00000000        0x0
 .bss           0x00000000        0x0 d:/program files - hdd/mplab compiler x32/bin/bin/../../lib/gcc/pic32mx/4.8.3/../../../../pic32mx/lib\libc.a(strtol.o)

.data           0x00000000        0x0
 .data          0x00000000        0x0 d:/program files - hdd/mplab compiler x32/bin/bin/../../lib/gcc/pic32mx/4.8.3/../../../../pic32mx/lib\libc.a(strtol.o)

.bss            0x00000000        0x0
 .bss           0x00000000        0x0 d:/program files - hdd/mplab compiler x32/bin/bin/../../lib/gcc/pic32mx/4.8.3/../../../../pic32mx/lib\libc.a(strstr.o)

.data           0x00000000        0x0
 .data          0x00000000        0x0 d:/program files - hdd/mplab compiler x32/bin/bin/../../lib/gcc/pic32mx/4.8.3/../../../../pic32mx/lib\libc.a(strstr.o)

.bss            0x00000000        0x0
 .bss           0x00000000        0x0 d:/program files - hdd/mplab compiler x32/bin/bin/../../lib/gcc/pic32mx/4.8.3/../../../../pic32mx/lib\libc.a(strchr.o)

.data           0x00000000        0x0
 .data          0x00000000        0x0 d:/program files - hdd/mplab compiler x32/bin/bin/../../lib/gcc/pic32mx/4.8.3/../../../../pic32mx/lib\libc.a(strchr.o)

.bss            0x00000000        0x0
 .bss           0x00000000        0x0 d:/program files - hdd/mplab compiler x32/bin/bin/../../lib/gcc/pic32mx/4.8.3/../../../../pic32mx/lib\libc.a(puts.o)

.data           0x00000000        0x0
 .data          0x00000000        0x0 d:/program files - hdd/mplab compiler x32/bin/bin/../../lib/gcc/pic32mx/4.8.3/../../../../pic32mx/lib\libc.a(puts.o)

.bss            0x00000000        0x0
 .bss           0x00000000        0x0 d:/program files - hdd/mplab compiler x32/bin/bin/../../lib/gcc/pic32mx/4.8.3/../../../../pic32mx/lib\libc.a(ctype.o)

.data           0x00000000        0x0
 .data          0x00000000        0x0 d:/program files - hdd/mplab compiler x32/bin/bin/../../lib/gcc/pic32mx/4.8.3/../../../../pic32mx/lib\libc.a(ctype.o)

.bss            0x00000000        0x0
 .bss           0x00000000        0x0 d:/program files - hdd/mplab compiler x32/bin/bin/../../lib/gcc/pic32mx/4.8.3/../../../../pic32mx/lib\libpic32.a(defaultinterrupt.o)

.data           0x00000000        0x0
 .data          0x00000000        0x0 d:/program files - hdd/mplab compiler x32/bin/bin/../../lib/gcc/pic32mx/4.8.3/../../../../pic32mx/lib\libpic32.a(defaultinterrupt.o)

.bss            0x00000000        0x0
 .bss           0x00000000        0x0 d:/program files - hdd/mplab compiler x32/bin/bin/../../lib/gcc/pic32mx/4.8.3/../../../../pic32mx/lib\libpic32.a(default-general-exception-handler.o)

.data           0x00000000        0x0
 .data          0x00000000        0x0 d:/program files - hdd/mplab compiler x32/bin/bin/../../lib/gcc/pic32mx/4.8.3/../../../../pic32mx/lib\libpic32.a(default-general-exception-handler.o)

.bss            0x00000000        0x0
 .bss           0x00000000        0x0 d:/program files - hdd/mplab compiler x32/bin/bin/../../lib/gcc/pic32mx/4.8.3/../../../../pic32mx/lib\libpic32.a(vector45.o)

.data           0x00000000        0x0
 .data          0x00000000        0x0 d:/program files - hdd/mplab compiler x32/bin/bin/../../lib/gcc/pic32mx/4.8.3/../../../../pic32mx/lib\libpic32.a(vector45.o)

.bss            0x00000000        0x0
 .bss           0x00000000        0x0 d:/program files - hdd/mplab compiler x32/bin/bin/../../lib/gcc/pic32mx/4.8.3/../../../../pic32mx/lib\libpic32.a(vector44.o)

.data           0x00000000        0x0
 .data          0x00000000        0x0 d:/program files - hdd/mplab compiler x32/bin/bin/../../lib/gcc/pic32mx/4.8.3/../../../../pic32mx/lib\libpic32.a(vector44.o)

.bss            0x00000000        0x0
 .bss           0x00000000        0x0 d:/program files - hdd/mplab compiler x32/bin/bin/../../lib/gcc/pic32mx/4.8.3/../../../../pic32mx/lib\libpic32.a(vector42.o)

.data           0x00000000        0x0
 .data          0x00000000        0x0 d:/program files - hdd/mplab compiler x32/bin/bin/../../lib/gcc/pic32mx/4.8.3/../../../../pic32mx/lib\libpic32.a(vector42.o)

.bss            0x00000000        0x0
 .bss           0x00000000        0x0 d:/program files - hdd/mplab compiler x32/bin/bin/../../lib/gcc/pic32mx/4.8.3/../../../../pic32mx/lib\libpic32.a(vector41.o)

.data           0x00000000        0x0
 .data          0x00000000        0x0 d:/program files - hdd/mplab compiler x32/bin/bin/../../lib/gcc/pic32mx/4.8.3/../../../../pic32mx/lib\libpic32.a(vector41.o)

.bss            0x00000000        0x0
 .bss           0x00000000        0x0 d:/program files - hdd/mplab compiler x32/bin/bin/../../lib/gcc/pic32mx/4.8.3/../../../../pic32mx/lib\libpic32.a(vector40.o)

.data           0x00000000        0x0
 .data          0x00000000        0x0 d:/program files - hdd/mplab compiler x32/bin/bin/../../lib/gcc/pic32mx/4.8.3/../../../../pic32mx/lib\libpic32.a(vector40.o)

.bss            0x00000000        0x0
 .bss           0x00000000        0x0 d:/program files - hdd/mplab compiler x32/bin/bin/../../lib/gcc/pic32mx/4.8.3/../../../../pic32mx/lib\libpic32.a(vector39.o)

.data           0x00000000        0x0
 .data          0x00000000        0x0 d:/program files - hdd/mplab compiler x32/bin/bin/../../lib/gcc/pic32mx/4.8.3/../../../../pic32mx/lib\libpic32.a(vector39.o)

.bss            0x00000000        0x0
 .bss           0x00000000        0x0 d:/program files - hdd/mplab compiler x32/bin/bin/../../lib/gcc/pic32mx/4.8.3/../../../../pic32mx/lib\libpic32.a(vector38.o)

.data           0x00000000        0x0
 .data          0x00000000        0x0 d:/program files - hdd/mplab compiler x32/bin/bin/../../lib/gcc/pic32mx/4.8.3/../../../../pic32mx/lib\libpic32.a(vector38.o)

.bss            0x00000000        0x0
 .bss           0x00000000        0x0 d:/program files - hdd/mplab compiler x32/bin/bin/../../lib/gcc/pic32mx/4.8.3/../../../../pic32mx/lib\libpic32.a(vector37.o)

.data           0x00000000        0x0
 .data          0x00000000        0x0 d:/program files - hdd/mplab compiler x32/bin/bin/../../lib/gcc/pic32mx/4.8.3/../../../../pic32mx/lib\libpic32.a(vector37.o)

.bss            0x00000000        0x0
 .bss           0x00000000        0x0 d:/program files - hdd/mplab compiler x32/bin/bin/../../lib/gcc/pic32mx/4.8.3/../../../../pic32mx/lib\libpic32.a(vector35.o)

.data           0x00000000        0x0
 .data          0x00000000        0x0 d:/program files - hdd/mplab compiler x32/bin/bin/../../lib/gcc/pic32mx/4.8.3/../../../../pic32mx/lib\libpic32.a(vector35.o)

.bss            0x00000000        0x0
 .bss           0x00000000        0x0 d:/program files - hdd/mplab compiler x32/bin/bin/../../lib/gcc/pic32mx/4.8.3/../../../../pic32mx/lib\libpic32.a(vector34.o)

.data           0x00000000        0x0
 .data          0x00000000        0x0 d:/program files - hdd/mplab compiler x32/bin/bin/../../lib/gcc/pic32mx/4.8.3/../../../../pic32mx/lib\libpic32.a(vector34.o)

.bss            0x00000000        0x0
 .bss           0x00000000        0x0 d:/program files - hdd/mplab compiler x32/bin/bin/../../lib/gcc/pic32mx/4.8.3/../../../../pic32mx/lib\libpic32.a(vector32.o)

.data           0x00000000        0x0
 .data          0x00000000        0x0 d:/program files - hdd/mplab compiler x32/bin/bin/../../lib/gcc/pic32mx/4.8.3/../../../../pic32mx/lib\libpic32.a(vector32.o)

.bss            0x00000000        0x0
 .bss           0x00000000        0x0 d:/program files - hdd/mplab compiler x32/bin/bin/../../lib/gcc/pic32mx/4.8.3/../../../../pic32mx/lib\libpic32.a(vector31.o)

.data           0x00000000        0x0
 .data          0x00000000        0x0 d:/program files - hdd/mplab compiler x32/bin/bin/../../lib/gcc/pic32mx/4.8.3/../../../../pic32mx/lib\libpic32.a(vector31.o)

.bss            0x00000000        0x0
 .bss           0x00000000        0x0 d:/program files - hdd/mplab compiler x32/bin/bin/../../lib/gcc/pic32mx/4.8.3/../../../../pic32mx/lib\libpic32.a(vector30.o)

.data           0x00000000        0x0
 .data          0x00000000        0x0 d:/program files - hdd/mplab compiler x32/bin/bin/../../lib/gcc/pic32mx/4.8.3/../../../../pic32mx/lib\libpic32.a(vector30.o)

.bss            0x00000000        0x0
 .bss           0x00000000        0x0 d:/program files - hdd/mplab compiler x32/bin/bin/../../lib/gcc/pic32mx/4.8.3/../../../../pic32mx/lib\libpic32.a(vector29.o)

.data           0x00000000        0x0
 .data          0x00000000        0x0 d:/program files - hdd/mplab compiler x32/bin/bin/../../lib/gcc/pic32mx/4.8.3/../../../../pic32mx/lib\libpic32.a(vector29.o)

.bss            0x00000000        0x0
 .bss           0x00000000        0x0 d:/program files - hdd/mplab compiler x32/bin/bin/../../lib/gcc/pic32mx/4.8.3/../../../../pic32mx/lib\libpic32.a(vector28.o)

.data           0x00000000        0x0
 .data          0x00000000        0x0 d:/program files - hdd/mplab compiler x32/bin/bin/../../lib/gcc/pic32mx/4.8.3/../../../../pic32mx/lib\libpic32.a(vector28.o)

.bss            0x00000000        0x0
 .bss           0x00000000        0x0 d:/program files - hdd/mplab compiler x32/bin/bin/../../lib/gcc/pic32mx/4.8.3/../../../../pic32mx/lib\libpic32.a(vector27.o)

.data           0x00000000        0x0
 .data          0x00000000        0x0 d:/program files - hdd/mplab compiler x32/bin/bin/../../lib/gcc/pic32mx/4.8.3/../../../../pic32mx/lib\libpic32.a(vector27.o)

.bss            0x00000000        0x0
 .bss           0x00000000        0x0 d:/program files - hdd/mplab compiler x32/bin/bin/../../lib/gcc/pic32mx/4.8.3/../../../../pic32mx/lib\libpic32.a(vector26.o)

.data           0x00000000        0x0
 .data          0x00000000        0x0 d:/program files - hdd/mplab compiler x32/bin/bin/../../lib/gcc/pic32mx/4.8.3/../../../../pic32mx/lib\libpic32.a(vector26.o)

.bss            0x00000000        0x0
 .bss           0x00000000        0x0 d:/program files - hdd/mplab compiler x32/bin/bin/../../lib/gcc/pic32mx/4.8.3/../../../../pic32mx/lib\libpic32.a(vector25.o)

.data           0x00000000        0x0
 .data          0x00000000        0x0 d:/program files - hdd/mplab compiler x32/bin/bin/../../lib/gcc/pic32mx/4.8.3/../../../../pic32mx/lib\libpic32.a(vector25.o)

.bss            0x00000000        0x0
 .bss           0x00000000        0x0 d:/program files - hdd/mplab compiler x32/bin/bin/../../lib/gcc/pic32mx/4.8.3/../../../../pic32mx/lib\libpic32.a(vector24.o)

.data           0x00000000        0x0
 .data          0x00000000        0x0 d:/program files - hdd/mplab compiler x32/bin/bin/../../lib/gcc/pic32mx/4.8.3/../../../../pic32mx/lib\libpic32.a(vector24.o)

.bss            0x00000000        0x0
 .bss           0x00000000        0x0 d:/program files - hdd/mplab compiler x32/bin/bin/../../lib/gcc/pic32mx/4.8.3/../../../../pic32mx/lib\libpic32.a(vector23.o)

.data           0x00000000        0x0
 .data          0x00000000        0x0 d:/program files - hdd/mplab compiler x32/bin/bin/../../lib/gcc/pic32mx/4.8.3/../../../../pic32mx/lib\libpic32.a(vector23.o)

.bss            0x00000000        0x0
 .bss           0x00000000        0x0 d:/program files - hdd/mplab compiler x32/bin/bin/../../lib/gcc/pic32mx/4.8.3/../../../../pic32mx/lib\libpic32.a(vector22.o)

.data           0x00000000        0x0
 .data          0x00000000        0x0 d:/program files - hdd/mplab compiler x32/bin/bin/../../lib/gcc/pic32mx/4.8.3/../../../../pic32mx/lib\libpic32.a(vector22.o)

.bss            0x00000000        0x0
 .bss           0x00000000        0x0 d:/program files - hdd/mplab compiler x32/bin/bin/../../lib/gcc/pic32mx/4.8.3/../../../../pic32mx/lib\libpic32.a(vector21.o)

.data           0x00000000        0x0
 .data          0x00000000        0x0 d:/program files - hdd/mplab compiler x32/bin/bin/../../lib/gcc/pic32mx/4.8.3/../../../../pic32mx/lib\libpic32.a(vector21.o)

.bss            0x00000000        0x0
 .bss           0x00000000        0x0 d:/program files - hdd/mplab compiler x32/bin/bin/../../lib/gcc/pic32mx/4.8.3/../../../../pic32mx/lib\libpic32.a(vector20.o)

.data           0x00000000        0x0
 .data          0x00000000        0x0 d:/program files - hdd/mplab compiler x32/bin/bin/../../lib/gcc/pic32mx/4.8.3/../../../../pic32mx/lib\libpic32.a(vector20.o)

.bss            0x00000000        0x0
 .bss           0x00000000        0x0 d:/program files - hdd/mplab compiler x32/bin/bin/../../lib/gcc/pic32mx/4.8.3/../../../../pic32mx/lib\libpic32.a(vector19.o)

.data           0x00000000        0x0
 .data          0x00000000        0x0 d:/program files - hdd/mplab compiler x32/bin/bin/../../lib/gcc/pic32mx/4.8.3/../../../../pic32mx/lib\libpic32.a(vector19.o)

.bss            0x00000000        0x0
 .bss           0x00000000        0x0 d:/program files - hdd/mplab compiler x32/bin/bin/../../lib/gcc/pic32mx/4.8.3/../../../../pic32mx/lib\libpic32.a(vector18.o)

.data           0x00000000        0x0
 .data          0x00000000        0x0 d:/program files - hdd/mplab compiler x32/bin/bin/../../lib/gcc/pic32mx/4.8.3/../../../../pic32mx/lib\libpic32.a(vector18.o)

.bss            0x00000000        0x0
 .bss           0x00000000        0x0 d:/program files - hdd/mplab compiler x32/bin/bin/../../lib/gcc/pic32mx/4.8.3/../../../../pic32mx/lib\libpic32.a(vector17.o)

.data           0x00000000        0x0
 .data          0x00000000        0x0 d:/program files - hdd/mplab compiler x32/bin/bin/../../lib/gcc/pic32mx/4.8.3/../../../../pic32mx/lib\libpic32.a(vector17.o)

.bss            0x00000000        0x0
 .bss           0x00000000        0x0 d:/program files - hdd/mplab compiler x32/bin/bin/../../lib/gcc/pic32mx/4.8.3/../../../../pic32mx/lib\libpic32.a(vector16.o)

.data           0x00000000        0x0
 .data          0x00000000        0x0 d:/program files - hdd/mplab compiler x32/bin/bin/../../lib/gcc/pic32mx/4.8.3/../../../../pic32mx/lib\libpic32.a(vector16.o)

.bss            0x00000000        0x0
 .bss           0x00000000        0x0 d:/program files - hdd/mplab compiler x32/bin/bin/../../lib/gcc/pic32mx/4.8.3/../../../../pic32mx/lib\libpic32.a(vector15.o)

.data           0x00000000        0x0
 .data          0x00000000        0x0 d:/program files - hdd/mplab compiler x32/bin/bin/../../lib/gcc/pic32mx/4.8.3/../../../../pic32mx/lib\libpic32.a(vector15.o)

.bss            0x00000000        0x0
 .bss           0x00000000        0x0 d:/program files - hdd/mplab compiler x32/bin/bin/../../lib/gcc/pic32mx/4.8.3/../../../../pic32mx/lib\libpic32.a(vector14.o)

.data           0x00000000        0x0
 .data          0x00000000        0x0 d:/program files - hdd/mplab compiler x32/bin/bin/../../lib/gcc/pic32mx/4.8.3/../../../../pic32mx/lib\libpic32.a(vector14.o)

.bss            0x00000000        0x0
 .bss           0x00000000        0x0 d:/program files - hdd/mplab compiler x32/bin/bin/../../lib/gcc/pic32mx/4.8.3/../../../../pic32mx/lib\libpic32.a(vector13.o)

.data           0x00000000        0x0
 .data          0x00000000        0x0 d:/program files - hdd/mplab compiler x32/bin/bin/../../lib/gcc/pic32mx/4.8.3/../../../../pic32mx/lib\libpic32.a(vector13.o)

.bss            0x00000000        0x0
 .bss           0x00000000        0x0 d:/program files - hdd/mplab compiler x32/bin/bin/../../lib/gcc/pic32mx/4.8.3/../../../../pic32mx/lib\libpic32.a(vector12.o)

.data           0x00000000        0x0
 .data          0x00000000        0x0 d:/program files - hdd/mplab compiler x32/bin/bin/../../lib/gcc/pic32mx/4.8.3/../../../../pic32mx/lib\libpic32.a(vector12.o)

.bss            0x00000000        0x0
 .bss           0x00000000        0x0 d:/program files - hdd/mplab compiler x32/bin/bin/../../lib/gcc/pic32mx/4.8.3/../../../../pic32mx/lib\libpic32.a(vector11.o)

.data           0x00000000        0x0
 .data          0x00000000        0x0 d:/program files - hdd/mplab compiler x32/bin/bin/../../lib/gcc/pic32mx/4.8.3/../../../../pic32mx/lib\libpic32.a(vector11.o)

.bss            0x00000000        0x0
 .bss           0x00000000        0x0 d:/program files - hdd/mplab compiler x32/bin/bin/../../lib/gcc/pic32mx/4.8.3/../../../../pic32mx/lib\libpic32.a(vector10.o)

.data           0x00000000        0x0
 .data          0x00000000        0x0 d:/program files - hdd/mplab compiler x32/bin/bin/../../lib/gcc/pic32mx/4.8.3/../../../../pic32mx/lib\libpic32.a(vector10.o)

.bss            0x00000000        0x0
 .bss           0x00000000        0x0 d:/program files - hdd/mplab compiler x32/bin/bin/../../lib/gcc/pic32mx/4.8.3/../../../../pic32mx/lib\libpic32.a(vector9.o)

.data           0x00000000        0x0
 .data          0x00000000        0x0 d:/program files - hdd/mplab compiler x32/bin/bin/../../lib/gcc/pic32mx/4.8.3/../../../../pic32mx/lib\libpic32.a(vector9.o)

.bss            0x00000000        0x0
 .bss           0x00000000        0x0 d:/program files - hdd/mplab compiler x32/bin/bin/../../lib/gcc/pic32mx/4.8.3/../../../../pic32mx/lib\libpic32.a(vector8.o)

.data           0x00000000        0x0
 .data          0x00000000        0x0 d:/program files - hdd/mplab compiler x32/bin/bin/../../lib/gcc/pic32mx/4.8.3/../../../../pic32mx/lib\libpic32.a(vector8.o)

.bss            0x00000000        0x0
 .bss           0x00000000        0x0 d:/program files - hdd/mplab compiler x32/bin/bin/../../lib/gcc/pic32mx/4.8.3/../../../../pic32mx/lib\libpic32.a(vector7.o)

.data           0x00000000        0x0
 .data          0x00000000        0x0 d:/program files - hdd/mplab compiler x32/bin/bin/../../lib/gcc/pic32mx/4.8.3/../../../../pic32mx/lib\libpic32.a(vector7.o)

.bss            0x00000000        0x0
 .bss           0x00000000        0x0 d:/program files - hdd/mplab compiler x32/bin/bin/../../lib/gcc/pic32mx/4.8.3/../../../../pic32mx/lib\libpic32.a(vector6.o)

.data           0x00000000        0x0
 .data          0x00000000        0x0 d:/program files - hdd/mplab compiler x32/bin/bin/../../lib/gcc/pic32mx/4.8.3/../../../../pic32mx/lib\libpic32.a(vector6.o)

.bss            0x00000000        0x0
 .bss           0x00000000        0x0 d:/program files - hdd/mplab compiler x32/bin/bin/../../lib/gcc/pic32mx/4.8.3/../../../../pic32mx/lib\libpic32.a(vector5.o)

.data           0x00000000        0x0
 .data          0x00000000        0x0 d:/program files - hdd/mplab compiler x32/bin/bin/../../lib/gcc/pic32mx/4.8.3/../../../../pic32mx/lib\libpic32.a(vector5.o)

.bss            0x00000000        0x0
 .bss           0x00000000        0x0 d:/program files - hdd/mplab compiler x32/bin/bin/../../lib/gcc/pic32mx/4.8.3/../../../../pic32mx/lib\libpic32.a(vector3.o)

.data           0x00000000        0x0
 .data          0x00000000        0x0 d:/program files - hdd/mplab compiler x32/bin/bin/../../lib/gcc/pic32mx/4.8.3/../../../../pic32mx/lib\libpic32.a(vector3.o)

.bss            0x00000000        0x0
 .bss           0x00000000        0x0 d:/program files - hdd/mplab compiler x32/bin/bin/../../lib/gcc/pic32mx/4.8.3/../../../../pic32mx/lib\libpic32.a(vector2.o)

.data           0x00000000        0x0
 .data          0x00000000        0x0 d:/program files - hdd/mplab compiler x32/bin/bin/../../lib/gcc/pic32mx/4.8.3/../../../../pic32mx/lib\libpic32.a(vector2.o)

.bss            0x00000000        0x0
 .bss           0x00000000        0x0 d:/program files - hdd/mplab compiler x32/bin/bin/../../lib/gcc/pic32mx/4.8.3/../../../../pic32mx/lib\libpic32.a(vector1.o)

.data           0x00000000        0x0
 .data          0x00000000        0x0 d:/program files - hdd/mplab compiler x32/bin/bin/../../lib/gcc/pic32mx/4.8.3/../../../../pic32mx/lib\libpic32.a(vector1.o)

.bss            0x00000000        0x0
 .bss           0x00000000        0x0 d:/program files - hdd/mplab compiler x32/bin/bin/../../lib/gcc/pic32mx/4.8.3/../../../../pic32mx/lib\libpic32.a(vector0.o)

.data           0x00000000        0x0
 .data          0x00000000        0x0 d:/program files - hdd/mplab compiler x32/bin/bin/../../lib/gcc/pic32mx/4.8.3/../../../../pic32mx/lib\libpic32.a(vector0.o)

.bss            0x00000000        0x0
 .bss           0x00000000        0x0 d:/program files - hdd/mplab compiler x32/bin/bin/../../lib/gcc/pic32mx/4.8.3/../../../../pic32mx/lib\libpic32.a(general-exception.o)

.data           0x00000000        0x0
 .data          0x00000000        0x0 d:/program files - hdd/mplab compiler x32/bin/bin/../../lib/gcc/pic32mx/4.8.3/../../../../pic32mx/lib\libpic32.a(general-exception.o)

.bss            0x00000000        0x0
 .bss           0x00000000        0x0 d:/program files - hdd/mplab compiler x32/bin/bin/../../lib/gcc/pic32mx/4.8.3/../../../../pic32mx/lib\libpic32.a(default-nmi-handler.o)

.data           0x00000000        0x0
 .data          0x00000000        0x0 d:/program files - hdd/mplab compiler x32/bin/bin/../../lib/gcc/pic32mx/4.8.3/../../../../pic32mx/lib\libpic32.a(default-nmi-handler.o)

.bss            0x00000000        0x0
 .bss           0x00000000        0x0 d:/program files - hdd/mplab compiler x32/bin/bin/../../lib/gcc/pic32mx/4.8.3/../../../../pic32mx/lib\libpic32.a(default-on-bootstrap.o)

.data           0x00000000        0x0
 .data          0x00000000        0x0 d:/program files - hdd/mplab compiler x32/bin/bin/../../lib/gcc/pic32mx/4.8.3/../../../../pic32mx/lib\libpic32.a(default-on-bootstrap.o)

.bss            0x00000000        0x0
 .bss           0x00000000        0x0 d:/program files - hdd/mplab compiler x32/bin/bin/../../lib/gcc/pic32mx/4.8.3/../../../../pic32mx/lib\libpic32.a(default-on-reset.o)

.data           0x00000000        0x0
 .data          0x00000000        0x0 d:/program files - hdd/mplab compiler x32/bin/bin/../../lib/gcc/pic32mx/4.8.3/../../../../pic32mx/lib\libpic32.a(default-on-reset.o)

.bss            0x00000000        0x0
 .bss           0x00000000        0x0 d:/program files - hdd/mplab compiler x32/bin/bin/../../lib/gcc/pic32mx/4.8.3/../../../../pic32mx/lib\libpic32.a(default-bootstrap-exception-handler.o)

.data           0x00000000        0x0
 .data          0x00000000        0x0 d:/program files - hdd/mplab compiler x32/bin/bin/../../lib/gcc/pic32mx/4.8.3/../../../../pic32mx/lib\libpic32.a(default-bootstrap-exception-handler.o)

.bss            0x00000000        0x0
 .bss           0x00000000        0x0 d:/program files - hdd/mplab compiler x32/bin/bin/../../lib/gcc/pic32mx/4.8.3/../../../../pic32mx/lib\libpic32.a(strlen.o)

.data           0x00000000        0x0
 .data          0x00000000        0x0 d:/program files - hdd/mplab compiler x32/bin/bin/../../lib/gcc/pic32mx/4.8.3/../../../../pic32mx/lib\libpic32.a(strlen.o)

.bss            0x00000000        0x0
 .bss           0x00000000        0x0 d:/program files - hdd/mplab compiler x32/bin/bin/../../lib/gcc/pic32mx/4.8.3/../../../../pic32mx/lib\libpic32.a(strcpy.o)

.data           0x00000000        0x0
 .data          0x00000000        0x0 d:/program files - hdd/mplab compiler x32/bin/bin/../../lib/gcc/pic32mx/4.8.3/../../../../pic32mx/lib\libpic32.a(strcpy.o)

.bss            0x00000000        0x0
 .bss           0x00000000        0x0 d:/program files - hdd/mplab compiler x32/bin/bin/../../lib/gcc/pic32mx/4.8.3/../../../../pic32mx/lib\libmchp_peripheral_32MX370F512L.a(I2CPrivate.o)

.data           0x00000000        0x0
 .data          0x00000000        0x0 d:/program files - hdd/mplab compiler x32/bin/bin/../../lib/gcc/pic32mx/4.8.3/../../../../pic32mx/lib\libmchp_peripheral_32MX370F512L.a(I2CPrivate.o)

.bss            0x00000000        0x0
 .bss           0x00000000        0x0 d:/program files - hdd/mplab compiler x32/bin/bin/../../lib/gcc/pic32mx/4.8.3/../../../../pic32mx/lib\libmchp_peripheral_32MX370F512L.a(I2CTransmitterIsReady.o)

.data           0x00000000        0x0
 .data          0x00000000        0x0 d:/program files - hdd/mplab compiler x32/bin/bin/../../lib/gcc/pic32mx/4.8.3/../../../../pic32mx/lib\libmchp_peripheral_32MX370F512L.a(I2CTransmitterIsReady.o)

.bss            0x00000000        0x0
 .bss           0x00000000        0x0 d:/program files - hdd/mplab compiler x32/bin/bin/../../lib/gcc/pic32mx/4.8.3/../../../../pic32mx/lib\libmchp_peripheral_32MX370F512L.a(I2CTransmissionHasCompleted.o)

.data           0x00000000        0x0
 .data          0x00000000        0x0 d:/program files - hdd/mplab compiler x32/bin/bin/../../lib/gcc/pic32mx/4.8.3/../../../../pic32mx/lib\libmchp_peripheral_32MX370F512L.a(I2CTransmissionHasCompleted.o)

.bss            0x00000000        0x0
 .bss           0x00000000        0x0 d:/program files - hdd/mplab compiler x32/bin/bin/../../lib/gcc/pic32mx/4.8.3/../../../../pic32mx/lib\libmchp_peripheral_32MX370F512L.a(I2CStop.o)

.data           0x00000000        0x0
 .data          0x00000000        0x0 d:/program files - hdd/mplab compiler x32/bin/bin/../../lib/gcc/pic32mx/4.8.3/../../../../pic32mx/lib\libmchp_peripheral_32MX370F512L.a(I2CStop.o)

.bss            0x00000000        0x0
 .bss           0x00000000        0x0 d:/program files - hdd/mplab compiler x32/bin/bin/../../lib/gcc/pic32mx/4.8.3/../../../../pic32mx/lib\libmchp_peripheral_32MX370F512L.a(I2CStart.o)

.data           0x00000000        0x0
 .data          0x00000000        0x0 d:/program files - hdd/mplab compiler x32/bin/bin/../../lib/gcc/pic32mx/4.8.3/../../../../pic32mx/lib\libmchp_peripheral_32MX370F512L.a(I2CStart.o)

.bss            0x00000000        0x0
 .bss           0x00000000        0x0 d:/program files - hdd/mplab compiler x32/bin/bin/../../lib/gcc/pic32mx/4.8.3/../../../../pic32mx/lib\libmchp_peripheral_32MX370F512L.a(I2CSetFrequency.o)

.data           0x00000000        0x0
 .data          0x00000000        0x0 d:/program files - hdd/mplab compiler x32/bin/bin/../../lib/gcc/pic32mx/4.8.3/../../../../pic32mx/lib\libmchp_peripheral_32MX370F512L.a(I2CSetFrequency.o)

.bss            0x00000000        0x0
 .bss           0x00000000        0x0 d:/program files - hdd/mplab compiler x32/bin/bin/../../lib/gcc/pic32mx/4.8.3/../../../../pic32mx/lib\libmchp_peripheral_32MX370F512L.a(I2CSendByte.o)

.data           0x00000000        0x0
 .data          0x00000000        0x0 d:/program files - hdd/mplab compiler x32/bin/bin/../../lib/gcc/pic32mx/4.8.3/../../../../pic32mx/lib\libmchp_peripheral_32MX370F512L.a(I2CSendByte.o)

.bss            0x00000000        0x0
 .bss           0x00000000        0x0 d:/program files - hdd/mplab compiler x32/bin/bin/../../lib/gcc/pic32mx/4.8.3/../../../../pic32mx/lib\libmchp_peripheral_32MX370F512L.a(I2CRepeatStart.o)

.data           0x00000000        0x0
 .data          0x00000000        0x0 d:/program files - hdd/mplab compiler x32/bin/bin/../../lib/gcc/pic32mx/4.8.3/../../../../pic32mx/lib\libmchp_peripheral_32MX370F512L.a(I2CRepeatStart.o)

.bss            0x00000000        0x0
 .bss           0x00000000        0x0 d:/program files - hdd/mplab compiler x32/bin/bin/../../lib/gcc/pic32mx/4.8.3/../../../../pic32mx/lib\libmchp_peripheral_32MX370F512L.a(I2CReceiverEnable.o)

.data           0x00000000        0x0
 .data          0x00000000        0x0 d:/program files - hdd/mplab compiler x32/bin/bin/../../lib/gcc/pic32mx/4.8.3/../../../../pic32mx/lib\libmchp_peripheral_32MX370F512L.a(I2CReceiverEnable.o)

.bss            0x00000000        0x0
 .bss           0x00000000        0x0 d:/program files - hdd/mplab compiler x32/bin/bin/../../lib/gcc/pic32mx/4.8.3/../../../../pic32mx/lib\libmchp_peripheral_32MX370F512L.a(I2CReceivedDataIsAvailable.o)

.data           0x00000000        0x0
 .data          0x00000000        0x0 d:/program files - hdd/mplab compiler x32/bin/bin/../../lib/gcc/pic32mx/4.8.3/../../../../pic32mx/lib\libmchp_peripheral_32MX370F512L.a(I2CReceivedDataIsAvailable.o)

.bss            0x00000000        0x0
 .bss           0x00000000        0x0 d:/program files - hdd/mplab compiler x32/bin/bin/../../lib/gcc/pic32mx/4.8.3/../../../../pic32mx/lib\libmchp_peripheral_32MX370F512L.a(I2CGetStatus.o)

.data           0x00000000        0x0
 .data          0x00000000        0x0 d:/program files - hdd/mplab compiler x32/bin/bin/../../lib/gcc/pic32mx/4.8.3/../../../../pic32mx/lib\libmchp_peripheral_32MX370F512L.a(I2CGetStatus.o)

.bss            0x00000000        0x0
 .bss           0x00000000        0x0 d:/program files - hdd/mplab compiler x32/bin/bin/../../lib/gcc/pic32mx/4.8.3/../../../../pic32mx/lib\libmchp_peripheral_32MX370F512L.a(I2CGetByte.o)

.data           0x00000000        0x0
 .data          0x00000000        0x0 d:/program files - hdd/mplab compiler x32/bin/bin/../../lib/gcc/pic32mx/4.8.3/../../../../pic32mx/lib\libmchp_peripheral_32MX370F512L.a(I2CGetByte.o)

.bss            0x00000000        0x0
 .bss           0x00000000        0x0 d:/program files - hdd/mplab compiler x32/bin/bin/../../lib/gcc/pic32mx/4.8.3/../../../../pic32mx/lib\libmchp_peripheral_32MX370F512L.a(I2CEnable.o)

.data           0x00000000        0x0
 .data          0x00000000        0x0 d:/program files - hdd/mplab compiler x32/bin/bin/../../lib/gcc/pic32mx/4.8.3/../../../../pic32mx/lib\libmchp_peripheral_32MX370F512L.a(I2CEnable.o)

.bss            0x00000000        0x0
 .bss           0x00000000        0x0 d:/program files - hdd/mplab compiler x32/bin/bin/../../lib/gcc/pic32mx/4.8.3/../../../../pic32mx/lib\libmchp_peripheral_32MX370F512L.a(I2CByteWasAcknowledged.o)

.data           0x00000000        0x0
 .data          0x00000000        0x0 d:/program files - hdd/mplab compiler x32/bin/bin/../../lib/gcc/pic32mx/4.8.3/../../../../pic32mx/lib\libmchp_peripheral_32MX370F512L.a(I2CByteWasAcknowledged.o)

.bss            0x00000000        0x0
 .bss           0x00000000        0x0 d:/program files - hdd/mplab compiler x32/bin/bin/../../lib/gcc/pic32mx/4.8.3/../../../../pic32mx/lib\libmchp_peripheral_32MX370F512L.a(I2CBusIsIdle.o)

.data           0x00000000        0x0
 .data          0x00000000        0x0 d:/program files - hdd/mplab compiler x32/bin/bin/../../lib/gcc/pic32mx/4.8.3/../../../../pic32mx/lib\libmchp_peripheral_32MX370F512L.a(I2CBusIsIdle.o)

.bss            0x00000000        0x0
 .bss           0x00000000        0x0 d:/program files - hdd/mplab compiler x32/bin/bin/../../lib/gcc/pic32mx/4.8.3/../../../../pic32mx/lib\libmchp_peripheral_32MX370F512L.a(I2CAcknowledgeHasCompleted.o)

.data           0x00000000        0x0
 .data          0x00000000        0x0 d:/program files - hdd/mplab compiler x32/bin/bin/../../lib/gcc/pic32mx/4.8.3/../../../../pic32mx/lib\libmchp_peripheral_32MX370F512L.a(I2CAcknowledgeHasCompleted.o)

.bss            0x00000000        0x0
 .bss           0x00000000        0x0 d:/program files - hdd/mplab compiler x32/bin/bin/../../lib/gcc/pic32mx/4.8.3/../../../../pic32mx/lib\libmchp_peripheral_32MX370F512L.a(I2CAcknowledgeByte.o)

.data           0x00000000        0x0
 .data          0x00000000        0x0 d:/program files - hdd/mplab compiler x32/bin/bin/../../lib/gcc/pic32mx/4.8.3/../../../../pic32mx/lib\libmchp_peripheral_32MX370F512L.a(I2CAcknowledgeByte.o)

.bss            0x00000000        0x0
 .bss           0x00000000        0x0 d:/program files - hdd/mplab compiler x32/bin/bin/../../lib/gcc/pic32mx/4.8.3/../../../../pic32mx/lib\libmchp_peripheral_32MX370F512L.a(uart_lib.o)

.data           0x00000000        0x0
 .data          0x00000000        0x0 d:/program files - hdd/mplab compiler x32/bin/bin/../../lib/gcc/pic32mx/4.8.3/../../../../pic32mx/lib\libmchp_peripheral_32MX370F512L.a(uart_lib.o)

.bss            0x00000000        0x0
 .bss           0x00000000        0x0 d:/program files - hdd/mplab compiler x32/bin/bin/../../lib/gcc/pic32mx/4.8.3/../../../../pic32mx/lib\libmchp_peripheral_32MX370F512L.a(_ports_tbl_libp.o)

.data           0x00000000        0x0
 .data          0x00000000        0x0 d:/program files - hdd/mplab compiler x32/bin/bin/../../lib/gcc/pic32mx/4.8.3/../../../../pic32mx/lib\libmchp_peripheral_32MX370F512L.a(_ports_tbl_libp.o)

.bss            0x00000000        0x0
 .bss           0x00000000        0x0 d:/program files - hdd/mplab compiler x32/bin/bin/../../lib/gcc/pic32mx/4.8.3/../../../../pic32mx/lib\libmchp_peripheral_32MX370F512L.a(port_set_pins_digital_out_lib.o)

.data           0x00000000        0x0
 .data          0x00000000        0x0 d:/program files - hdd/mplab compiler x32/bin/bin/../../lib/gcc/pic32mx/4.8.3/../../../../pic32mx/lib\libmchp_peripheral_32MX370F512L.a(port_set_pins_digital_out_lib.o)

.bss            0x00000000        0x0
 .bss           0x00000000        0x0 d:/program files - hdd/mplab compiler x32/bin/bin/../../lib/gcc/pic32mx/4.8.3/../../../../pic32mx/lib\libmchp_peripheral_32MX370F512L.a(port_set_pins_digital_in_lib.o)

.data           0x00000000        0x0
 .data          0x00000000        0x0 d:/program files - hdd/mplab compiler x32/bin/bin/../../lib/gcc/pic32mx/4.8.3/../../../../pic32mx/lib\libmchp_peripheral_32MX370F512L.a(port_set_pins_digital_in_lib.o)

.bss            0x00000000        0x0
 .bss           0x00000000        0x0 d:/program files - hdd/mplab compiler x32/bin/bin/../../lib/gcc/pic32mx/4.8.3/../../../../pic32mx/lib\libmchp_peripheral_32MX370F512L.a(dma_reg_map_tbl_lib.o)

.data           0x00000000        0x0
 .data          0x00000000        0x0 d:/program files - hdd/mplab compiler x32/bin/bin/../../lib/gcc/pic32mx/4.8.3/../../../../pic32mx/lib\libmchp_peripheral_32MX370F512L.a(dma_reg_map_tbl_lib.o)

.bss            0x00000000        0x0
 .bss           0x00000000        0x0 d:/program files - hdd/mplab compiler x32/bin/bin/../../lib/gcc/pic32mx/4.8.3/../../../../pic32mx/lib\libmchp_peripheral_32MX370F512L.a(dma_chn_set_txfer_lib.o)

.data           0x00000000        0x0
 .data          0x00000000        0x0 d:/program files - hdd/mplab compiler x32/bin/bin/../../lib/gcc/pic32mx/4.8.3/../../../../pic32mx/lib\libmchp_peripheral_32MX370F512L.a(dma_chn_set_txfer_lib.o)

.bss            0x00000000        0x0
 .bss           0x00000000        0x0 d:/program files - hdd/mplab compiler x32/bin/bin/../../lib/gcc/pic32mx/4.8.3/../../../../pic32mx/lib\libmchp_peripheral_32MX370F512L.a(dma_chn_set_match_pattern_lib.o)

.data           0x00000000        0x0
 .data          0x00000000        0x0 d:/program files - hdd/mplab compiler x32/bin/bin/../../lib/gcc/pic32mx/4.8.3/../../../../pic32mx/lib\libmchp_peripheral_32MX370F512L.a(dma_chn_set_match_pattern_lib.o)

.bss            0x00000000        0x0
 .bss           0x00000000        0x0 d:/program files - hdd/mplab compiler x32/bin/bin/../../lib/gcc/pic32mx/4.8.3/../../../../pic32mx/lib\libmchp_peripheral_32MX370F512L.a(dma_chn_write_event_control_flags_lib.o)

.data           0x00000000        0x0
 .data          0x00000000        0x0 d:/program files - hdd/mplab compiler x32/bin/bin/../../lib/gcc/pic32mx/4.8.3/../../../../pic32mx/lib\libmchp_peripheral_32MX370F512L.a(dma_chn_write_event_control_flags_lib.o)

.bss            0x00000000        0x0
 .bss           0x00000000        0x0 d:/program files - hdd/mplab compiler x32/bin/bin/../../lib/gcc/pic32mx/4.8.3/../../../../pic32mx/lib\libmchp_peripheral_32MX370F512L.a(dma_chn_get_ev_flags_lib.o)

.data           0x00000000        0x0
 .data          0x00000000        0x0 d:/program files - hdd/mplab compiler x32/bin/bin/../../lib/gcc/pic32mx/4.8.3/../../../../pic32mx/lib\libmchp_peripheral_32MX370F512L.a(dma_chn_get_ev_flags_lib.o)

.bss            0x00000000        0x0
 .bss           0x00000000        0x0 d:/program files - hdd/mplab compiler x32/bin/bin/../../lib/gcc/pic32mx/4.8.3/../../../../pic32mx/lib\libmchp_peripheral_32MX370F512L.a(dma_chn_enable_lib.o)

.data           0x00000000        0x0
 .data          0x00000000        0x0 d:/program files - hdd/mplab compiler x32/bin/bin/../../lib/gcc/pic32mx/4.8.3/../../../../pic32mx/lib\libmchp_peripheral_32MX370F512L.a(dma_chn_enable_lib.o)

.bss            0x00000000        0x0
 .bss           0x00000000        0x0 d:/program files - hdd/mplab compiler x32/bin/bin/../../lib/gcc/pic32mx/4.8.3/../../../../pic32mx/lib\libmchp_peripheral_32MX370F512L.a(dma_chn_open_lib.o)

.data           0x00000000        0x0
 .data          0x00000000        0x0 d:/program files - hdd/mplab compiler x32/bin/bin/../../lib/gcc/pic32mx/4.8.3/../../../../pic32mx/lib\libmchp_peripheral_32MX370F512L.a(dma_chn_open_lib.o)

.bss            0x00000000        0x0
 .bss           0x00000000        0x0 d:/program files - hdd/mplab compiler x32/bin/bin/../../lib/gcc/pic32mx/4.8.3/../../../../pic32mx/lib\libmchp_peripheral_32MX370F512L.a(dma_chn_set_ev_enable_flags_lib.o)

.data           0x00000000        0x0
 .data          0x00000000        0x0 d:/program files - hdd/mplab compiler x32/bin/bin/../../lib/gcc/pic32mx/4.8.3/../../../../pic32mx/lib\libmchp_peripheral_32MX370F512L.a(dma_chn_set_ev_enable_flags_lib.o)

.bss            0x00000000        0x0
 .bss           0x00000000        0x0 d:/program files - hdd/mplab compiler x32/bin/bin/../../lib/gcc/pic32mx/4.8.3/../../../../pic32mx/lib\libmchp_peripheral_32MX370F512L.a(int_tbl_lib.o)

.data           0x00000000        0x0
 .data          0x00000000        0x0 d:/program files - hdd/mplab compiler x32/bin/bin/../../lib/gcc/pic32mx/4.8.3/../../../../pic32mx/lib\libmchp_peripheral_32MX370F512L.a(int_tbl_lib.o)

.bss            0x00000000        0x0
 .bss           0x00000000        0x0 d:/program files - hdd/mplab compiler x32/bin/bin/../../lib/gcc/pic32mx/4.8.3/../../../../pic32mx/lib\libmchp_peripheral_32MX370F512L.a(int_restore_interrupts_lib.o)

.data           0x00000000        0x0
 .data          0x00000000        0x0 d:/program files - hdd/mplab compiler x32/bin/bin/../../lib/gcc/pic32mx/4.8.3/../../../../pic32mx/lib\libmchp_peripheral_32MX370F512L.a(int_restore_interrupts_lib.o)

.bss            0x00000000        0x0
 .bss           0x00000000        0x0 d:/program files - hdd/mplab compiler x32/bin/bin/../../lib/gcc/pic32mx/4.8.3/../../../../pic32mx/lib\libmchp_peripheral_32MX370F512L.a(int_disable_interrupts_lib.o)

.data           0x00000000        0x0
 .data          0x00000000        0x0 d:/program files - hdd/mplab compiler x32/bin/bin/../../lib/gcc/pic32mx/4.8.3/../../../../pic32mx/lib\libmchp_peripheral_32MX370F512L.a(int_disable_interrupts_lib.o)

.bss            0x00000000        0x0
 .bss           0x00000000        0x0 d:/program files - hdd/mplab compiler x32/bin/bin/../../lib/gcc/pic32mx/4.8.3/../../../../pic32mx/lib\libmchp_peripheral_32MX370F512L.a(int_enable_interrupts_lib.o)

.data           0x00000000        0x0
 .data          0x00000000        0x0 d:/program files - hdd/mplab compiler x32/bin/bin/../../lib/gcc/pic32mx/4.8.3/../../../../pic32mx/lib\libmchp_peripheral_32MX370F512L.a(int_enable_interrupts_lib.o)

.bss            0x00000000        0x0
 .bss           0x00000000        0x0 d:/program files - hdd/mplab compiler x32/bin/bin/../../lib/gcc/pic32mx/4.8.3/../../../../pic32mx/lib\libmchp_peripheral_32MX370F512L.a(int_configure_system_lib.o)

.data           0x00000000        0x0
 .data          0x00000000        0x0 d:/program files - hdd/mplab compiler x32/bin/bin/../../lib/gcc/pic32mx/4.8.3/../../../../pic32mx/lib\libmchp_peripheral_32MX370F512L.a(int_configure_system_lib.o)

.bss            0x00000000        0x0
 .bss           0x00000000        0x0 d:/program files - hdd/mplab compiler x32/bin/bin/../../lib/gcc/pic32mx/4.8.3/../../../../pic32mx/lib\libmchp_peripheral_32MX370F512L.a(pcache.o)

.data           0x00000000        0x0
 .data          0x00000000        0x0 d:/program files - hdd/mplab compiler x32/bin/bin/../../lib/gcc/pic32mx/4.8.3/../../../../pic32mx/lib\libmchp_peripheral_32MX370F512L.a(pcache.o)

.bss            0x00000000        0x0
 .bss           0x00000000        0x0 d:/program files - hdd/mplab compiler x32/bin/bin/../../lib/gcc/pic32mx/4.8.3/../../../../pic32mx/lib\libmchp_peripheral.a(read_core_timer_lib.o)

.data           0x00000000        0x0
 .data          0x00000000        0x0 d:/program files - hdd/mplab compiler x32/bin/bin/../../lib/gcc/pic32mx/4.8.3/../../../../pic32mx/lib\libmchp_peripheral.a(read_core_timer_lib.o)

.bss            0x00000000        0x0
 .bss           0x00000000        0x0 d:/program files - hdd/mplab compiler x32/bin/bin/../../lib/gcc/pic32mx/4.8.3/../../../../pic32mx/lib/./proc/32MX370F512L\processor.o

.data           0x00000000        0x0
 .data          0x00000000        0x0 d:/program files - hdd/mplab compiler x32/bin/bin/../../lib/gcc/pic32mx/4.8.3/../../../../pic32mx/lib/./proc/32MX370F512L\processor.o

.bss            0x00000000        0x0
 .bss           0x00000000        0x0 d:/program files - hdd/mplab compiler x32/bin/bin/../../lib/gcc/pic32mx/4.8.3/../../../../pic32mx/lib\pic32_software_reset.o

.data           0x00000000        0x0
 .data          0x00000000        0x0 d:/program files - hdd/mplab compiler x32/bin/bin/../../lib/gcc/pic32mx/4.8.3/../../../../pic32mx/lib\pic32_software_reset.o

.bss            0x00000000        0x0
 .bss           0x00000000        0x0 d:/program files - hdd/mplab compiler x32/bin/bin/../../lib/gcc/pic32mx/4.8.3/../../../../pic32mx/lib/./proc/32MX370F512L\default_isr_vectors.o

.data           0x00000000        0x0
 .data          0x00000000        0x0 d:/program files - hdd/mplab compiler x32/bin/bin/../../lib/gcc/pic32mx/4.8.3/../../../../pic32mx/lib/./proc/32MX370F512L\default_isr_vectors.o

.bss            0x00000000        0x0
 .bss           0x00000000        0x0 build/default/production/_ext/1472/Stepper.o

.data           0x00000000        0x0
 .data          0x00000000        0x0 build/default/production/_ext/1472/Stepper.o

.bss            0x00000000        0x0
 .bss           0x00000000        0x0 build/default/production/_ext/1472/MAG3110.o

.data           0x00000000        0x0
 .data          0x00000000        0x0 build/default/production/_ext/1472/MAG3110.o

.bss            0x00000000        0x0
 .bss           0x00000000        0x0 build/default/production/_ext/1472/DMA_UART2.o

.data           0x00000000        0x0
 .data          0x00000000        0x0 build/default/production/_ext/1472/DMA_UART2.o

.bss            0x00000000        0x0
 .bss           0x00000000        0x0 build/default/production/_ext/1472/Notice.o

.data           0x00000000        0x0
 .data          0x00000000        0x0 build/default/production/_ext/1472/Notice.o

.bss            0x00000000        0x0
 .bss           0x00000000        0x0 build/default/production/_ext/1472/CycleData.o

.data           0x00000000        0x0
 .data          0x00000000        0x0 build/default/production/_ext/1472/CycleData.o

.bss            0x00000000        0x0
 .bss           0x00000000        0x0 build/default/production/_ext/1472/ADC_TEMP.o

.data           0x00000000        0x0
 .data          0x00000000        0x0 build/default/production/_ext/1472/ADC_TEMP.o

.data           0x00000000        0x0
 .data          0x00000000        0x0 build/default/production/_ext/1472/Gamepad.o

.bss            0x00000000        0x0
 .bss           0x00000000        0x0 build/default/production/_ext/1472/i2c_lib.o

.data           0x00000000        0x0
 .data          0x00000000        0x0 build/default/production/_ext/1472/i2c_lib.o

.data           0x00000000        0x0
 .data          0x00000000        0x0 build/default/production/_ext/1472/GPS_I2C.o

.bss            0x00000000        0x0
 .bss           0x00000000        0x0 build/default/production/_ext/1472/Pot.o

.data           0x00000000        0x0
 .data          0x00000000        0x0 build/default/production/_ext/1472/Pot.o

.bss            0x00000000        0x0
 .bss           0x00000000        0x0 build/default/production/_ext/1472/RC.o

.data           0x00000000        0x0
 .data          0x00000000        0x0 build/default/production/_ext/1472/RC.o

.bss            0x00000000        0x0
 .bss           0x00000000        0x0 build/default/production/_ext/1472/uart4.o

.data           0x00000000        0x0
 .data          0x00000000        0x0 build/default/production/_ext/1472/uart4.o

.bss            0x00000000        0x0
 .bss           0x00000000        0x0 build/default/production/_ext/1472/uart2.o

.data           0x00000000        0x0
 .data          0x00000000        0x0 build/default/production/_ext/1472/uart2.o

.bss            0x00000000        0x0
 .bss           0x00000000        0x0 build/default/production/_ext/1472/swDelay.o

.data           0x00000000        0x0
 .data          0x00000000        0x0 build/default/production/_ext/1472/swDelay.o

.data           0x00000000        0x0
 .data          0x00000000        0x0 build/default/production/_ext/1472/main.o

.bss            0x00000000        0x0
 .bss           0x00000000        0x0 build/default/production/_ext/1472/led7.o

.data           0x00000000        0x0
 .data          0x00000000        0x0 build/default/production/_ext/1472/led7.o

.bss            0x00000000        0x0
 .bss           0x00000000        0x0 build/default/production/_ext/1472/hardware.o

.data           0x00000000        0x0
 .data          0x00000000        0x0 build/default/production/_ext/1472/hardware.o

.bss            0x00000000        0x0
 .bss           0x00000000        0x0 build/default/production/_ext/1472/LCDlib.o

.bss            0x00000000        0x0
 .bss           0x00000000        0x0 d:/program files - hdd/mplab compiler x32/bin/bin/../../lib/gcc/pic32mx/4.8.3/../../../../pic32mx/lib\debug-exception-return.o

.data           0x00000000        0x0
 .data          0x00000000        0x0 d:/program files - hdd/mplab compiler x32/bin/bin/../../lib/gcc/pic32mx/4.8.3/../../../../pic32mx/lib\debug-exception-return.o

.bss            0x00000000        0x0
 .bss           0x00000000        0x0 d:/program files - hdd/mplab compiler x32/bin/bin/../../lib/gcc/pic32mx/4.8.3/../../../../pic32mx/lib/./proc/32MX370F512L/crt0_mips32r2.o

.data           0x00000000        0x0
 .data          0x00000000        0x0 d:/program files - hdd/mplab compiler x32/bin/bin/../../lib/gcc/pic32mx/4.8.3/../../../../pic32mx/lib/./proc/32MX370F512L/crt0_mips32r2.o

._debug_exception
                0xbfc00480       0x2c
 ._debug_exception
                0xbfc00480       0x2c d:/program files - hdd/mplab compiler x32/bin/bin/../../lib/gcc/pic32mx/4.8.3/../../../../pic32mx/lib\debug-exception-return.o
                0xbfc00480                __DbgExecReturn

.text._vfprintf_cdfFnopsuxX
                0x9d000000     0x1554
 .text._vfprintf_cdfFnopsuxX
                0x9d000000     0x1554 d:/program files - hdd/mplab compiler x32/bin/bin/../../lib/gcc/pic32mx/4.8.3/../../../../pic32mx/lib\libc.a(doprnt_cdfFnopsuxX.eo)
                0x9d000000                _vfprintf_0
                0x9d000000                _vfprintf_cdnopuxX
                0x9d000000                _vfprintf_cdnopsuxX
                0x9d000000                _vfprintf_cdfFnopsuxX
                0x9d000000                _vfprintf_cdfFnopuxX
                0x9d000000                _vfprintf_s

.text           0x9d001554     0x20e4
 .text          0x9d001554     0x11d8 build/default/production/_ext/1472/led7.o
                0x9d001554                seg7_init
                0x9d001720                clr_dsp
                0x9d0017a0                set_digit
                0x9d0019d0                dsp_digit
                0x9d001f58                led_number
                0x9d00227c                test_7seg_leds
                0x9d002420                updateLED7
 .text          0x9d00272c      0xf0c build/default/production/_ext/1472/MAG3110.o
                0x9d00272c                MAG3110_initialize
                0x9d002834                MAG3110_readRegister
                0x9d0028f0                MAG3110_writeRegister
                0x9d002970                MAG3110_dataReady
                0x9d0029cc                MAG3110_readMag
                0x9d002b80                MAG3110_readMicroTeslas
                0x9d002c78                MAG3110_readHeading
                0x9d002e5c                MAG3110_setDR_OS
                0x9d002f34                MAG3110_triggerMeasurement
                0x9d002f94                MAG3110_rawData
                0x9d003020                MAG3110_setOffset
                0x9d0030ec                MAG3110_readOffset
                0x9d003134                MAG3110_start
                0x9d00316c                MAG3110_enterStandby
                0x9d0031b0                MAG3110_exitStandby
                0x9d003248                MAG3110_isActive
                0x9d00326c                MAG3110_isRaw
                0x9d003290                MAG3110_isCalibrated
                0x9d0032b4                MAG3110_isCalibrating
                0x9d0032d8                MAG3110_getSysMode
                0x9d00330c                MAG3110_enterCalMode
                0x9d00338c                MAG3110_calibrate
                0x9d0033fc                MAG3110_exitCalMode
                0x9d0034a0                MAG3110_reset
                0x9d003618                MAG3110_EnvCalibrate

.text           0x9d003638      0xe70
 .text          0x9d003638      0xe70 build/default/production/_ext/1472/i2c_lib.o
                0x9d003638                I2C_Init
                0x9d003750                I2C_Write
                0x9d0038c4                I2C_Read
                0x9d003aa8                I2CReadRegs
                0x9d00409c                I2C_WriteDev
                0x9d0042ac                I2C_ReadDev
                0x9d00445c                i2c_ackError

.text._vfscanf_cdfFnopuxX
                0x9d0044a8      0xb98
 .text._vfscanf_cdfFnopuxX
                0x9d0044a8      0xb98 d:/program files - hdd/mplab compiler x32/bin/bin/../../lib/gcc/pic32mx/4.8.3/../../../../pic32mx/lib\libc.a(doscan_cdfFnopuxX.eo)
                0x9d0044a8                _vfscanf_cdfFnopuxX

.text           0x9d005040     0x12e0
 .text          0x9d005040      0xa4c build/default/production/_ext/1472/LCDlib.o
                0x9d005040                initLCD
                0x9d005274                readLCD
                0x9d005304                writeLCD
                0x9d005398                putcLCD
                0x9d00541c                putsLCD
                0x9d0056e4                initLCDGr
                0x9d00586c                FFT_Disp
 .text          0x9d005a8c      0x894 build/default/production/_ext/1472/Gamepad.o
                0x9d005a8c                GamepadInit
                0x9d005bc0                ParseInput
                0x9d006084                HandleInput
                0x9d0061c4                MoveRight
                0x9d006228                Move
                0x9d0062e8                ClearLeftStick

.text           0x9d006320      0xfe4
 .text          0x9d006320      0x848 build/default/production/_ext/1472/hardware.o
                0x9d006320                Hardware_Setup
                0x9d0069dc                Timer1Handler
 .text          0x9d006b68      0x79c build/default/production/_ext/1472/ADC_TEMP.o
                0x9d006b68                init_temperature
                0x9d006c6c                read_temperature
                0x9d006ee8                read_temperature_store
                0x9d007134                check_thresh
                0x9d0072bc                GetTemp1
                0x9d0072e0                GetTemp2

.text           0x9d007304      0xe4c
 .text          0x9d007304      0x774 build/default/production/_ext/1472/main.o
                0x9d007304                GetMsg
                0x9d007330                main
                0x9d00760c                print_pretty_table
                0x9d0077e8                InitializeModules
                0x9d00797c                InitMag
 .text          0x9d007a78      0x6d8 build/default/production/_ext/1472/RC.o
                0x9d007a78                rcUpdate
                0x9d007c38                set_rc
                0x9d007ca4                rc_output
                0x9d007db4                initRC
                0x9d007eb4                SetDefaultServoPosition
                0x9d007f04                TurnLeft
                0x9d007f8c                TurnLeftPos
                0x9d008018                TurnRight
                0x9d0080b0                TurnRightPos

.text           0x9d008150      0x670
 .text          0x9d008150      0x670 build/default/production/_ext/1472/uart4.o
                0x9d008150                uart4_init
                0x9d008248                _mon_putc
                0x9d0082dc                putcU4
                0x9d008384                putcIU4
                0x9d00842c                getcU4
                0x9d0084dc                getcIU4
                0x9d00858c                putsU4
                0x9d008638                getstrU4

.rodata         0x9d0087c0      0x5dc
 .rodata        0x9d0087c0      0x5dc d:/program files - hdd/mplab compiler x32/bin/bin/../../lib/gcc/pic32mx/4.8.3/../../../../pic32mx/lib\libmchp_peripheral_32MX370F512L.a(int_tbl_lib.o)
                0x9d0087c0                __IntSrcTbl
                0x9d008b80                __IntVectorTbl

.text           0x9d008d9c      0x5d0
 .text          0x9d008d9c      0x5d0 build/default/production/_ext/1472/uart2.o
                0x9d008d9c                uart2_init
                0x9d008ec8                putcU2
                0x9d008f24                putsU2
                0x9d008fd4                getcU2
                0x9d009098                getstrU2
                0x9d009200                IntUart2Handler

.text.dp32mul   0x9d00936c      0x4b8
 .text.dp32mul  0x9d00936c      0x4b8 d:/program files - hdd/mplab compiler x32/bin/bin/../../lib/gcc/pic32mx/4.8.3/../../../../pic32mx/lib\libm.a(dp32div.o)
                0x9d00936c                __divdf3
                0x9d00936c                dpdiv

.text           0x9d009824      0x478
 .text          0x9d009824      0x478 build/default/production/_ext/1472/GPS_I2C.o
                0x9d009824                setGPS_RMC
                0x9d009880                GPS_DECODE_RMC
                0x9d009a08                ReportGPS
                0x9d009be8                sendMTKpacket

.text.dreml     0x9d009c9c      0x470
 .text.dreml    0x9d009c9c      0x470 d:/program files - hdd/mplab compiler x32/bin/bin/../../lib/gcc/pic32mx/4.8.3/../../../../pic32mx/lib\libm.a(support.o)
                0x9d009c9c                dreml

.text           0x9d00a10c      0x8bc
 .text          0x9d00a10c      0x464 d:/program files - hdd/mplab compiler x32/bin/bin/../../lib/gcc/pic32mx/4.8.3\libgcc.a(_umoddi3.o)
                0x9d00a10c                __umoddi3
 .text          0x9d00a570      0x458 d:/program files - hdd/mplab compiler x32/bin/bin/../../lib/gcc/pic32mx/4.8.3\libgcc.a(_udivdi3.o)
                0x9d00a570                __udivdi3

.text.dp32subadd
                0x9d00a9c8      0x430
 .text.dp32subadd
                0x9d00a9c8      0x430 d:/program files - hdd/mplab compiler x32/bin/bin/../../lib/gcc/pic32mx/4.8.3/../../../../pic32mx/lib\libm.a(dp32subadd.o)
                0x9d00a9c8                __subdf3
                0x9d00a9c8                dpsub
                0x9d00a9d0                dpadd
                0x9d00a9d0                __adddf3

.text.__strtod  0x9d00adf8      0x3d0
 .text.__strtod
                0x9d00adf8      0x3d0 d:/program files - hdd/mplab compiler x32/bin/bin/../../lib/gcc/pic32mx/4.8.3/../../../../pic32mx/lib\libm.a(__strtod.o)
                0x9d00adf8                __strtod

.dinit          0x9d00b1c8      0x3a0
 .dinit         0x9d00b1c8      0x3a0 data_init

.text.__strtof  0x9d00b568      0x358
 .text.__strtof
                0x9d00b568      0x358 d:/program files - hdd/mplab compiler x32/bin/bin/../../lib/gcc/pic32mx/4.8.3/../../../../pic32mx/lib\libm.a(__strtof.o)
                0x9d00b568                __strtof

.text.libm      0x9d00b8c0      0x350
 .text.libm     0x9d00b8c0      0x350 d:/program files - hdd/mplab compiler x32/bin/bin/../../lib/gcc/pic32mx/4.8.3/../../../../pic32mx/lib\libm.a(fpexatan.o)
                0x9d00b8c0                fpexatan

.text.dp32mul   0x9d00bc10      0x32c
 .text.dp32mul  0x9d00bc10      0x32c d:/program files - hdd/mplab compiler x32/bin/bin/../../lib/gcc/pic32mx/4.8.3/../../../../pic32mx/lib\libm.a(dp32mul.o)
                0x9d00bc10                __muldf3
                0x9d00bc10                dpmul

.text.atan2f    0x9d00bf3c      0x31c
 .text.atan2f   0x9d00bf3c      0x31c d:/program files - hdd/mplab compiler x32/bin/bin/../../lib/gcc/pic32mx/4.8.3/../../../../pic32mx/lib\libm.a(w_atan2f.o)
                0x9d00bf3c                atan2f

.text           0x9d00c258      0x614
 .text          0x9d00c258      0x310 build/default/production/_ext/1472/DMA_UART2.o
                0x9d00c258                DmaUartRxInit
                0x9d00c38c                DmaUartRx
                0x9d00c3f8                DmaHandler1
 .text          0x9d00c568      0x304 build/default/production/_ext/1472/swDelay.o
                0x9d00c568                msDelay
                0x9d00c5f4                usDelay
                0x9d00c698                nsDelay
                0x9d00c73c                PeriodMs
                0x9d00c7e0                DelayMs

.text           0x9d00c86c      0x2b8
 .text          0x9d00c86c      0x2b8 build/default/production/_ext/1472/Notice.o
                0x9d00c86c                initChangeNotice
                0x9d00c948                ChangeNoticeHandler

.text.fpsubadd  0x9d00cb24      0x278
 .text.fpsubadd
                0x9d00cb24      0x278 d:/program files - hdd/mplab compiler x32/bin/bin/../../lib/gcc/pic32mx/4.8.3/../../../../pic32mx/lib\libm.a(fp32subadd.o)
                0x9d00cb24                fpsub
                0x9d00cb24                __subsf3
                0x9d00cb2c                __addsf3
                0x9d00cb2c                fpadd

.text           0x9d00cd9c      0x260
 .text          0x9d00cd9c      0x260 build/default/production/_ext/1472/Stepper.o
                0x9d00cd9c                stepper_init
                0x9d00ce7c                step

.text.libm      0x9d00cffc      0x248
 .text.libm     0x9d00cffc      0x248 d:/program files - hdd/mplab compiler x32/bin/bin/../../lib/gcc/pic32mx/4.8.3/../../../../pic32mx/lib\libm.a(fpatan2.o)
                0x9d00cffc                __mchp_atan2f
                0x9d00cffc                fpatan2

.text.scale     0x9d00d244      0x23c
 .text.scale    0x9d00d244      0x23c d:/program files - hdd/mplab compiler x32/bin/bin/../../lib/gcc/pic32mx/4.8.3/../../../../pic32mx/lib\libc.a(doprnt_cdfFnopsuxX.eo)

.text.fp32div   0x9d00d480      0x230
 .text.fp32div  0x9d00d480      0x230 d:/program files - hdd/mplab compiler x32/bin/bin/../../lib/gcc/pic32mx/4.8.3/../../../../pic32mx/lib\libm.a(fp32div.o)
                0x9d00d480                fpdiv
                0x9d00d480                __divsf3

.text.strtoul   0x9d00d6b0      0x1d4
 .text.strtoul  0x9d00d6b0      0x1d4 d:/program files - hdd/mplab compiler x32/bin/bin/../../lib/gcc/pic32mx/4.8.3/../../../../pic32mx/lib\libc.a(strtol.o)
                0x9d00d6b0                strtoul

.text.fp32mul   0x9d00d884      0x1bc
 .text.fp32mul  0x9d00d884      0x1bc d:/program files - hdd/mplab compiler x32/bin/bin/../../lib/gcc/pic32mx/4.8.3/../../../../pic32mx/lib\libm.a(fp32mul.o)
                0x9d00d884                fpmul
                0x9d00d884                __mulsf3

.text.__ldexp   0x9d00da40      0x1a8
 .text.__ldexp  0x9d00da40      0x1a8 d:/program files - hdd/mplab compiler x32/bin/bin/../../lib/gcc/pic32mx/4.8.3/../../../../pic32mx/lib\libe.a(_ldexp.o)
                0x9d00da40                __ldexp

.text           0x9d00dbe8      0x1a0
 .text          0x9d00dbe8      0x1a0 d:/program files - hdd/mplab compiler x32/bin/bin/../../lib/gcc/pic32mx/4.8.3/../../../../pic32mx/lib\libpic32.a(strcpy.o)
                0x9d00dbe8                strcpy

.text.strtol    0x9d00dd88      0x19c
 .text.strtol   0x9d00dd88      0x19c d:/program files - hdd/mplab compiler x32/bin/bin/../../lib/gcc/pic32mx/4.8.3/../../../../pic32mx/lib\libc.a(strtol.o)
                0x9d00dd88                strtol

.text._filbuf   0x9d00df24      0x188
 .text._filbuf  0x9d00df24      0x188 d:/program files - hdd/mplab compiler x32/bin/bin/../../lib/gcc/pic32mx/4.8.3/../../../../pic32mx/lib\libc.a(filbuf.o)
                0x9d00df24                _filbuf

.rodata         0x9d00e0ac      0x170
 .rodata        0x9d00e0ac      0x170 build/default/production/_ext/1472/i2c_lib.o

.text.libm      0x9d00e21c      0x16c
 .text.libm     0x9d00e21c      0x16c d:/program files - hdd/mplab compiler x32/bin/bin/../../lib/gcc/pic32mx/4.8.3/../../../../pic32mx/lib\libm.a(dpldexp.o)
                0x9d00e21c                ldexp
                0x9d00e21c                dpldexp
                0x9d00e21c                __mchp_ldexp

.text           0x9d00e388      0x168
 .text          0x9d00e388      0x168 d:/program files - hdd/mplab compiler x32/bin/bin/../../lib/gcc/pic32mx/4.8.3/../../../../pic32mx/lib\libpic32.a(strlen.o)
                0x9d00e388                strlen

.rodata         0x9d00e4f0      0x160
 .rodata        0x9d00e4f0      0x160 d:/program files - hdd/mplab compiler x32/bin/bin/../../lib/gcc/pic32mx/4.8.3/../../../../pic32mx/lib\libc.a(ldpowers.o)
                0x9d00e4f0                _npowers_
                0x9d00e5a0                _powers_

.text.read      0x9d00e650      0x158
 .text.read     0x9d00e650      0x158 d:/program files - hdd/mplab compiler x32/bin/bin/../../lib/gcc/pic32mx/4.8.3/../../../../pic32mx/lib\libpic32.a(read.o)
                0x9d00e650                read

.text.fputc     0x9d00e7a8      0x144
 .text.fputc    0x9d00e7a8      0x144 d:/program files - hdd/mplab compiler x32/bin/bin/../../lib/gcc/pic32mx/4.8.3/../../../../pic32mx/lib\libc.a(_fputc_simple.o)
                0x9d00e7a8                fputc

.text._flsbuf   0x9d00e8ec      0x12c
 .text._flsbuf  0x9d00e8ec      0x12c d:/program files - hdd/mplab compiler x32/bin/bin/../../lib/gcc/pic32mx/4.8.3/../../../../pic32mx/lib\libc.a(_flsbuf_simple.o)
                0x9d00e8ec                _flsbuf

.text.dpcmp     0x9d00ea18      0x12c
 .text.dpcmp    0x9d00ea18      0x12c d:/program files - hdd/mplab compiler x32/bin/bin/../../lib/gcc/pic32mx/4.8.3/../../../../pic32mx/lib\libm.a(dpcmp.o)
                0x9d00ea18                __gtdf2
                0x9d00ea18                __ltdf2
                0x9d00ea18                dpcmp
                0x9d00ea18                __ledf2
                0x9d00ea18                __nedf2
                0x9d00ea18                __gedf2
                0x9d00ea18                __eqdf2

.text.logbl     0x9d00eb44      0x124
 .text.logbl    0x9d00eb44      0x124 d:/program files - hdd/mplab compiler x32/bin/bin/../../lib/gcc/pic32mx/4.8.3/../../../../pic32mx/lib\libm.a(support.o)
                0x9d00eb44                logbl

.rodata         0x9d00ec68      0x104
 .rodata        0x9d00ec68      0x104 d:/program files - hdd/mplab compiler x32/bin/bin/../../lib/gcc/pic32mx/4.8.3/../../../../pic32mx/lib\libc.a(ctype.o)
                0x9d00ec68                _ctype

.text.fgetc     0x9d00ed6c      0x104
 .text.fgetc    0x9d00ed6c      0x104 d:/program files - hdd/mplab compiler x32/bin/bin/../../lib/gcc/pic32mx/4.8.3/../../../../pic32mx/lib\libc.a(fgetc.o)
                0x9d00ed6c                fgetc

.text.__ldexpf  0x9d00ee70      0x104
 .text.__ldexpf
                0x9d00ee70      0x104 d:/program files - hdd/mplab compiler x32/bin/bin/../../lib/gcc/pic32mx/4.8.3/../../../../pic32mx/lib\libe.a(_ldexpf.o)
                0x9d00ee70                __ldexpf

.rodata         0x9d00ef74      0x200
 .rodata        0x9d00ef74      0x100 build/default/production/_ext/1472/main.o
 .rodata        0x9d00f074      0x100 build/default/production/_ext/1472/MAG3110.o

.text.dptofp    0x9d00f174      0x100
 .text.dptofp   0x9d00f174      0x100 d:/program files - hdd/mplab compiler x32/bin/bin/../../lib/gcc/pic32mx/4.8.3/../../../../pic32mx/lib\libm.a(dptofp.o)
                0x9d00f174                __truncdfsf2
                0x9d00f174                dptofp

.text.libm.fpexsqrt
                0x9d00f274       0xfc
 .text.libm.fpexsqrt
                0x9d00f274       0xfc d:/program files - hdd/mplab compiler x32/bin/bin/../../lib/gcc/pic32mx/4.8.3/../../../../pic32mx/lib\libm.a(fpexsqrt32.o)
                0x9d00f274                fpexsqrt

.text.DmaChnOpen
                0x9d00f370       0xf0
 .text.DmaChnOpen
                0x9d00f370       0xf0 d:/program files - hdd/mplab compiler x32/bin/bin/../../lib/gcc/pic32mx/4.8.3/../../../../pic32mx/lib\libmchp_peripheral_32MX370F512L.a(dma_chn_open_lib.o)
                0x9d00f370                DmaChnOpen

.rodata         0x9d00f460       0xf0
 .rodata        0x9d00f460       0xf0 d:/program files - hdd/mplab compiler x32/bin/bin/../../lib/gcc/pic32mx/4.8.3/../../../../pic32mx/lib\libc.a(doprnt_cdfFnopsuxX.eo)

.text.__fixdfdi
                0x9d00f550       0xe8
 .text.__fixdfdi
                0x9d00f550       0xe8 d:/program files - hdd/mplab compiler x32/bin/bin/../../lib/gcc/pic32mx/4.8.3/../../../../pic32mx/lib\libe.a(_fixdfdi.o)
                0x9d00f550                __fixdfdi

.text.general_exception
                0x9d00f638       0xdc
 .text.general_exception
                0x9d00f638       0xdc d:/program files - hdd/mplab compiler x32/bin/bin/../../lib/gcc/pic32mx/4.8.3/../../../../pic32mx/lib\libpic32.a(general-exception.o)
                0x9d00f638                _general_exception_context

.text           0x9d00f714       0xd8
 .text          0x9d00f714       0xd8 build/default/production/_ext/1472/Pot.o
                0x9d00f714                init_analog
                0x9d00f734                readAnalog

.rodata         0x9d00f7ec       0xd4
 .rodata        0x9d00f7ec       0xd4 build/default/production/_ext/1472/GPS_I2C.o

.text.fptodp    0x9d00f8c0       0xac
 .text.fptodp   0x9d00f8c0       0xac d:/program files - hdd/mplab compiler x32/bin/bin/../../lib/gcc/pic32mx/4.8.3/../../../../pic32mx/lib\libm.a(fptodp.o)
                0x9d00f8c0                fptodp
                0x9d00f8c0                __extendsfdf2

.text.range     0x9d00f96c       0xa8
 .text.range    0x9d00f96c       0xa8 d:/program files - hdd/mplab compiler x32/bin/bin/../../lib/gcc/pic32mx/4.8.3/../../../../pic32mx/lib\libc.a(doscan_cdfFnopuxX.eo)

.text.atoi      0x9d00fa14       0xa8
 .text.atoi     0x9d00fa14       0xa8 d:/program files - hdd/mplab compiler x32/bin/bin/../../lib/gcc/pic32mx/4.8.3/../../../../pic32mx/lib\libc.a(atoi.o)
                0x9d00fa14                atoi

.text.libm      0x9d00fabc       0xa8
 .text.libm     0x9d00fabc       0xa8 d:/program files - hdd/mplab compiler x32/bin/bin/../../lib/gcc/pic32mx/4.8.3/../../../../pic32mx/lib\libm.a(dpfrexp.o)
                0x9d00fabc                dpfrexp
                0x9d00fabc                frexp
                0x9d00fabc                frexpl

.text.fflush    0x9d00fb64       0xa0
 .text.fflush   0x9d00fb64       0xa0 d:/program files - hdd/mplab compiler x32/bin/bin/../../lib/gcc/pic32mx/4.8.3/../../../../pic32mx/lib\libc.a(fflush.o)
                0x9d00fb64                fflush

.text.DmaChnSetTxfer
                0x9d00fc04       0x9c
 .text.DmaChnSetTxfer
                0x9d00fc04       0x9c d:/program files - hdd/mplab compiler x32/bin/bin/../../lib/gcc/pic32mx/4.8.3/../../../../pic32mx/lib\libmchp_peripheral_32MX370F512L.a(dma_chn_set_txfer_lib.o)
                0x9d00fc04                DmaChnSetTxfer

.text.fpcmp     0x9d00fca0       0x9c
 .text.fpcmp    0x9d00fca0       0x9c d:/program files - hdd/mplab compiler x32/bin/bin/../../lib/gcc/pic32mx/4.8.3/../../../../pic32mx/lib\libm.a(fpcmp.o)
                0x9d00fca0                __nesf2
                0x9d00fca0                __gtsf2
                0x9d00fca0                __eqsf2
                0x9d00fca0                __ltsf2
                0x9d00fca0                fpcmp
                0x9d00fca0                __gesf2
                0x9d00fca0                __lesf2

.text.write     0x9d00fd3c       0x9c
 .text.write    0x9d00fd3c       0x9c d:/program files - hdd/mplab compiler x32/bin/bin/../../lib/gcc/pic32mx/4.8.3/../../../../pic32mx/lib\libpic32.a(write.o)
                0x9d00fd3c                write

.text.strstr    0x9d00fdd8       0x90
 .text.strstr   0x9d00fdd8       0x90 d:/program files - hdd/mplab compiler x32/bin/bin/../../lib/gcc/pic32mx/4.8.3/../../../../pic32mx/lib\libc.a(strstr.o)
                0x9d00fdd8                strstr

.text.__orderdf2
                0x9d00fe68       0x8c
 .text.__orderdf2
                0x9d00fe68       0x8c d:/program files - hdd/mplab compiler x32/bin/bin/../../lib/gcc/pic32mx/4.8.3/../../../../pic32mx/lib\libe.a(_orderdf2.o)
                0x9d00fe68                __orderdf2

.text.UARTEnable
                0x9d00fef4       0x80
 .text.UARTEnable
                0x9d00fef4       0x80 d:/program files - hdd/mplab compiler x32/bin/bin/../../lib/gcc/pic32mx/4.8.3/../../../../pic32mx/lib\libmchp_peripheral_32MX370F512L.a(uart_lib.o)
                0x9d00fef4                UARTEnable

.text.fptoli    0x9d00ff74       0x80
 .text.fptoli   0x9d00ff74       0x80 d:/program files - hdd/mplab compiler x32/bin/bin/../../lib/gcc/pic32mx/4.8.3/../../../../pic32mx/lib\libm.a(fptoli.o)
                0x9d00ff74                fptoli
                0x9d00ff74                fptosi
                0x9d00ff74                __fixsfsi

.text.__fixunsdfdi
                0x9d00fff4       0x80
 .text.__fixunsdfdi
                0x9d00fff4       0x80 d:/program files - hdd/mplab compiler x32/bin/bin/../../lib/gcc/pic32mx/4.8.3/../../../../pic32mx/lib\libe.a(_fixunsdfdi.o)
                0x9d00fff4                __fixunsdfdi

.text.litodp    0x9d010074       0x78
 .text.litodp   0x9d010074       0x78 d:/program files - hdd/mplab compiler x32/bin/bin/../../lib/gcc/pic32mx/4.8.3/../../../../pic32mx/lib\libm.a(litodp.o)
                0x9d010074                litodp
                0x9d010074                __floatsidf

.text.ungetc    0x9d0100ec       0x74
 .text.ungetc   0x9d0100ec       0x74 d:/program files - hdd/mplab compiler x32/bin/bin/../../lib/gcc/pic32mx/4.8.3/../../../../pic32mx/lib\libc.a(ungetc.o)
                0x9d0100ec                ungetc

.text.strncmp   0x9d010160       0x70
 .text.strncmp  0x9d010160       0x70 d:/program files - hdd/mplab compiler x32/bin/bin/../../lib/gcc/pic32mx/4.8.3/../../../../pic32mx/lib\libc.a(strncmp.o)
                0x9d010160                strncmp

.text._sprintf_cdnopuxX
                0x9d0101d0       0x68
 .text._sprintf_cdnopuxX
                0x9d0101d0       0x68 d:/program files - hdd/mplab compiler x32/bin/bin/../../lib/gcc/pic32mx/4.8.3/../../../../pic32mx/lib\libc.a(sprintf_cdnopuxX.eo)
                0x9d0101d0                _sprintf_cdnopuxX

.text           0x9d010238       0x64
 .text          0x9d010238       0x64 d:/program files - hdd/mplab compiler x32/bin/bin/../../lib/gcc/pic32mx/4.8.3\libgcc.a(_floatundidf.o)
                0x9d010238                __floatundidf

.text.fputs     0x9d01029c       0x60
 .text.fputs    0x9d01029c       0x60 d:/program files - hdd/mplab compiler x32/bin/bin/../../lib/gcc/pic32mx/4.8.3/../../../../pic32mx/lib\libc.a(puts.o)
                0x9d01029c                fputs

.text.wspace    0x9d0102fc       0x60
 .text.wspace   0x9d0102fc       0x60 d:/program files - hdd/mplab compiler x32/bin/bin/../../lib/gcc/pic32mx/4.8.3/../../../../pic32mx/lib\libc.a(doscan_cdfFnopuxX.eo)

.text.sitofp    0x9d01035c       0x60
 .text.sitofp   0x9d01035c       0x60 d:/program files - hdd/mplab compiler x32/bin/bin/../../lib/gcc/pic32mx/4.8.3/../../../../pic32mx/lib\libm.a(sitofp.o)
                0x9d01035c                __floatsisf
                0x9d01035c                litofp
                0x9d01035c                sitofp

.text.copysign  0x9d0103bc       0x60
 .text.copysign
                0x9d0103bc       0x60 d:/program files - hdd/mplab compiler x32/bin/bin/../../lib/gcc/pic32mx/4.8.3/../../../../pic32mx/lib\libm.a(support.o)
                0x9d0103bc                copysign

.text.copysignf
                0x9d01041c       0x60
 .text.copysignf
                0x9d01041c       0x60 d:/program files - hdd/mplab compiler x32/bin/bin/../../lib/gcc/pic32mx/4.8.3/../../../../pic32mx/lib\libm.a(support.o)
                0x9d01041c                copysignf

.text.UARTSetDataRate
                0x9d01047c       0x5c
 .text.UARTSetDataRate
                0x9d01047c       0x5c d:/program files - hdd/mplab compiler x32/bin/bin/../../lib/gcc/pic32mx/4.8.3/../../../../pic32mx/lib\libmchp_peripheral_32MX370F512L.a(uart_lib.o)
                0x9d01047c                UARTSetDataRate

.text.main_entry
                0x9d0104d8       0x54
 .text.main_entry
                0x9d0104d8       0x54 d:/program files - hdd/mplab compiler x32/bin/bin/../../lib/gcc/pic32mx/4.8.3/../../../../pic32mx/lib/./proc/32MX370F512L/crt0_mips32r2.o
                0x9d01050c                __crt0_exit

.rodata         0x9d01052c       0x54
 .rodata        0x9d01052c       0x54 d:/program files - hdd/mplab compiler x32/bin/bin/../../lib/gcc/pic32mx/4.8.3/../../../../pic32mx/lib\libmchp_peripheral_32MX370F512L.a(_ports_tbl_libp.o)
                0x9d01052c                PortRegTbl

.text.I2CBusIsIdle
                0x9d010580       0x54
 .text.I2CBusIsIdle
                0x9d010580       0x54 d:/program files - hdd/mplab compiler x32/bin/bin/../../lib/gcc/pic32mx/4.8.3/../../../../pic32mx/lib\libmchp_peripheral_32MX370F512L.a(I2CBusIsIdle.o)
                0x9d010580                I2CBusIsIdle

.text._sscanf_cdfFnopuxX
                0x9d0105d4       0x54
 .text._sscanf_cdfFnopuxX
                0x9d0105d4       0x54 d:/program files - hdd/mplab compiler x32/bin/bin/../../lib/gcc/pic32mx/4.8.3/../../../../pic32mx/lib\libc.a(sscanf_cdfFnopuxX.eo)
                0x9d0105d4                _sscanf_cdfFnopuxX

.text.I2CAcknowledgeByte
                0x9d010628       0x4c
 .text.I2CAcknowledgeByte
                0x9d010628       0x4c d:/program files - hdd/mplab compiler x32/bin/bin/../../lib/gcc/pic32mx/4.8.3/../../../../pic32mx/lib\libmchp_peripheral_32MX370F512L.a(I2CAcknowledgeByte.o)
                0x9d010628                I2CAcknowledgeByte

.text.I2CSetFrequency
                0x9d010674       0x48
 .text.I2CSetFrequency
                0x9d010674       0x48 d:/program files - hdd/mplab compiler x32/bin/bin/../../lib/gcc/pic32mx/4.8.3/../../../../pic32mx/lib\libmchp_peripheral_32MX370F512L.a(I2CSetFrequency.o)
                0x9d010674                I2CSetFrequency

.text._bootstrap_exception_handler
                0x9d0106bc       0x48
 .text._bootstrap_exception_handler
                0x9d0106bc       0x48 d:/program files - hdd/mplab compiler x32/bin/bin/../../lib/gcc/pic32mx/4.8.3/../../../../pic32mx/lib\libpic32.a(default-bootstrap-exception-handler.o)
                0x9d0106bc                _bootstrap_exception_handler

.text._general_exception_handler
                0x9d010704       0x48
 .text._general_exception_handler
                0x9d010704       0x48 d:/program files - hdd/mplab compiler x32/bin/bin/../../lib/gcc/pic32mx/4.8.3/../../../../pic32mx/lib\libpic32.a(default-general-exception-handler.o)
                0x9d010704                _general_exception_handler

.vector_default
                0x9d01074c       0x48
 .vector_default
                0x9d01074c       0x48 d:/program files - hdd/mplab compiler x32/bin/bin/../../lib/gcc/pic32mx/4.8.3/../../../../pic32mx/lib\libpic32.a(defaultinterrupt.o)
                0x9d01074c                _DefaultInterrupt

.rodata         0x9d010794       0x48
 .rodata        0x9d010794       0x48 d:/program files - hdd/mplab compiler x32/bin/bin/../../lib/gcc/pic32mx/4.8.3/../../../../pic32mx/lib\libm.a(__strtod.o)

.text           0x9d0107dc       0x44
 .text          0x9d0107dc       0x44 d:/program files - hdd/mplab compiler x32/bin/bin/../../lib/gcc/pic32mx/4.8.3/../../../../pic32mx/lib\pic32_software_reset.o
                0x9d0107dc                __pic32_software_reset

.text.I2CGetStatus
                0x9d010820       0x44
 .text.I2CGetStatus
                0x9d010820       0x44 d:/program files - hdd/mplab compiler x32/bin/bin/../../lib/gcc/pic32mx/4.8.3/../../../../pic32mx/lib\libmchp_peripheral_32MX370F512L.a(I2CGetStatus.o)
                0x9d010820                I2CGetStatus

.text.puts      0x9d010864       0x44
 .text.puts     0x9d010864       0x44 d:/program files - hdd/mplab compiler x32/bin/bin/../../lib/gcc/pic32mx/4.8.3/../../../../pic32mx/lib\libc.a(puts.o)
                0x9d010864                puts

.text           0x9d0108a8       0x44
 .text          0x9d0108a8       0x44 d:/program files - hdd/mplab compiler x32/bin/bin/../../lib/gcc/pic32mx/4.8.3\libgcc.a(floatunsidf.o)
                0x9d0108a8                __floatunsidf

.text.INTSetVectorPriority
                0x9d0108ec       0x40
 .text.INTSetVectorPriority
                0x9d0108ec       0x40 d:/program files - hdd/mplab compiler x32/bin/bin/../../lib/gcc/pic32mx/4.8.3/../../../../pic32mx/lib\libmchp_peripheral_32MX370F512L.a(int_tbl_lib.o)
                0x9d0108ec                INTSetVectorPriority

.text.INTSetVectorSubPriority
                0x9d01092c       0x40
 .text.INTSetVectorSubPriority
                0x9d01092c       0x40 d:/program files - hdd/mplab compiler x32/bin/bin/../../lib/gcc/pic32mx/4.8.3/../../../../pic32mx/lib\libmchp_peripheral_32MX370F512L.a(int_tbl_lib.o)
                0x9d01092c                INTSetVectorSubPriority

.text.PORTSetPinsDigitalIn
                0x9d01096c       0x40
 .text.PORTSetPinsDigitalIn
                0x9d01096c       0x40 d:/program files - hdd/mplab compiler x32/bin/bin/../../lib/gcc/pic32mx/4.8.3/../../../../pic32mx/lib\libmchp_peripheral_32MX370F512L.a(port_set_pins_digital_in_lib.o)
                0x9d01096c                PORTSetPinsDigitalIn

.text.PORTSetPinsDigitalOut
                0x9d0109ac       0x40
 .text.PORTSetPinsDigitalOut
                0x9d0109ac       0x40 d:/program files - hdd/mplab compiler x32/bin/bin/../../lib/gcc/pic32mx/4.8.3/../../../../pic32mx/lib\libmchp_peripheral_32MX370F512L.a(port_set_pins_digital_out_lib.o)
                0x9d0109ac                PORTSetPinsDigitalOut

.text.UARTGetDataRate
                0x9d0109ec       0x40
 .text.UARTGetDataRate
                0x9d0109ec       0x40 d:/program files - hdd/mplab compiler x32/bin/bin/../../lib/gcc/pic32mx/4.8.3/../../../../pic32mx/lib\libmchp_peripheral_32MX370F512L.a(uart_lib.o)
                0x9d0109ec                UARTGetDataRate

.text._printf_cdfFnopsuxX
                0x9d010a2c       0x40
 .text._printf_cdfFnopsuxX
                0x9d010a2c       0x40 d:/program files - hdd/mplab compiler x32/bin/bin/../../lib/gcc/pic32mx/4.8.3/../../../../pic32mx/lib\libc.a(printf_cdfFnopsuxX.eo)
                0x9d010a2c                _printf_cdfFnopuxX
                0x9d010a2c                _printf_cdnopsuxX
                0x9d010a2c                _printf_cdnopuxX
                0x9d010a2c                _printf_s
                0x9d010a2c                _printf_0
                0x9d010a2c                _printf_cdfFnopsuxX

.text           0x9d010a6c       0x80
 .text          0x9d010a6c       0x40 d:/program files - hdd/mplab compiler x32/bin/bin/../../lib/gcc/pic32mx/4.8.3\libgcc.a(_lshrdi3.o)
                0x9d010a6c                __lshrdi3
 .text          0x9d010aac       0x40 d:/program files - hdd/mplab compiler x32/bin/bin/../../lib/gcc/pic32mx/4.8.3\libgcc.a(_ashldi3.o)
                0x9d010aac                __ashldi3

.text.INTEnable
                0x9d010aec       0x3c
 .text.INTEnable
                0x9d010aec       0x3c d:/program files - hdd/mplab compiler x32/bin/bin/../../lib/gcc/pic32mx/4.8.3/../../../../pic32mx/lib\libmchp_peripheral_32MX370F512L.a(int_tbl_lib.o)
                0x9d010aec                INTEnable

.text.UARTConfigure
                0x9d010b28       0x3c
 .text.UARTConfigure
                0x9d010b28       0x3c d:/program files - hdd/mplab compiler x32/bin/bin/../../lib/gcc/pic32mx/4.8.3/../../../../pic32mx/lib\libmchp_peripheral_32MX370F512L.a(uart_lib.o)
                0x9d010b28                UARTConfigure

.text.UARTSetAddress
                0x9d010b64       0x3c
 .text.UARTSetAddress
                0x9d010b64       0x3c d:/program files - hdd/mplab compiler x32/bin/bin/../../lib/gcc/pic32mx/4.8.3/../../../../pic32mx/lib\libmchp_peripheral_32MX370F512L.a(uart_lib.o)
                0x9d010b64                UARTSetAddress

.rodata         0x9d010ba0       0x34
 .rodata        0x9d010ba0       0x34 build/default/production/_ext/1472/uart2.o

.text.UARTWatchForAddress
                0x9d010bd4       0x34
 .text.UARTWatchForAddress
                0x9d010bd4       0x34 d:/program files - hdd/mplab compiler x32/bin/bin/../../lib/gcc/pic32mx/4.8.3/../../../../pic32mx/lib\libmchp_peripheral_32MX370F512L.a(uart_lib.o)
                0x9d010bd4                UARTWatchForAddress

.text.I2CReceiverEnable
                0x9d010c08       0x34
 .text.I2CReceiverEnable
                0x9d010c08       0x34 d:/program files - hdd/mplab compiler x32/bin/bin/../../lib/gcc/pic32mx/4.8.3/../../../../pic32mx/lib\libmchp_peripheral_32MX370F512L.a(I2CReceiverEnable.o)
                0x9d010c08                I2CReceiverEnable

.text.copysignl
                0x9d010c3c       0x34
 .text.copysignl
                0x9d010c3c       0x34 d:/program files - hdd/mplab compiler x32/bin/bin/../../lib/gcc/pic32mx/4.8.3/../../../../pic32mx/lib\libm.a(support.o)
                0x9d010c3c                copysignl

.text.finite    0x9d010c70       0x34
 .text.finite   0x9d010c70       0x34 d:/program files - hdd/mplab compiler x32/bin/bin/../../lib/gcc/pic32mx/4.8.3/../../../../pic32mx/lib\libm.a(support.o)
                0x9d010c70                finite

.text.finitef   0x9d010ca4       0x34
 .text.finitef  0x9d010ca4       0x34 d:/program files - hdd/mplab compiler x32/bin/bin/../../lib/gcc/pic32mx/4.8.3/../../../../pic32mx/lib\libm.a(support.o)
                0x9d010ca4                finitef

.text.INTConfigureSystem
                0x9d010cd8       0x30
 .text.INTConfigureSystem
                0x9d010cd8       0x30 d:/program files - hdd/mplab compiler x32/bin/bin/../../lib/gcc/pic32mx/4.8.3/../../../../pic32mx/lib\libmchp_peripheral_32MX370F512L.a(int_configure_system_lib.o)
                0x9d010cd8                INTConfigureSystem

.text.INTGetVectorPriority
                0x9d010d08       0x30
 .text.INTGetVectorPriority
                0x9d010d08       0x30 d:/program files - hdd/mplab compiler x32/bin/bin/../../lib/gcc/pic32mx/4.8.3/../../../../pic32mx/lib\libmchp_peripheral_32MX370F512L.a(int_tbl_lib.o)
                0x9d010d08                INTGetVectorPriority

.text.INTGetVectorSubPriority
                0x9d010d38       0x30
 .text.INTGetVectorSubPriority
                0x9d010d38       0x30 d:/program files - hdd/mplab compiler x32/bin/bin/../../lib/gcc/pic32mx/4.8.3/../../../../pic32mx/lib\libmchp_peripheral_32MX370F512L.a(int_tbl_lib.o)
                0x9d010d38                INTGetVectorSubPriority

.text.DmaChnWriteEventControlFlags
                0x9d010d68       0x30
 .text.DmaChnWriteEventControlFlags
                0x9d010d68       0x30 d:/program files - hdd/mplab compiler x32/bin/bin/../../lib/gcc/pic32mx/4.8.3/../../../../pic32mx/lib\libmchp_peripheral_32MX370F512L.a(dma_chn_write_event_control_flags_lib.o)
                0x9d010d68                DmaChnWriteEventControlFlags

.text.I2CRepeatStart
                0x9d010d98       0x30
 .text.I2CRepeatStart
                0x9d010d98       0x30 d:/program files - hdd/mplab compiler x32/bin/bin/../../lib/gcc/pic32mx/4.8.3/../../../../pic32mx/lib\libmchp_peripheral_32MX370F512L.a(I2CRepeatStart.o)
                0x9d010d98                I2CRepeatStart

.text.I2CSendByte
                0x9d010dc8       0x30
 .text.I2CSendByte
                0x9d010dc8       0x30 d:/program files - hdd/mplab compiler x32/bin/bin/../../lib/gcc/pic32mx/4.8.3/../../../../pic32mx/lib\libmchp_peripheral_32MX370F512L.a(I2CSendByte.o)
                0x9d010dc8                I2CSendByte

.text.I2CStart  0x9d010df8       0x30
 .text.I2CStart
                0x9d010df8       0x30 d:/program files - hdd/mplab compiler x32/bin/bin/../../lib/gcc/pic32mx/4.8.3/../../../../pic32mx/lib\libmchp_peripheral_32MX370F512L.a(I2CStart.o)
                0x9d010df8                I2CStart

.text.INTClearFlag
                0x9d010e28       0x2c
 .text.INTClearFlag
                0x9d010e28       0x2c d:/program files - hdd/mplab compiler x32/bin/bin/../../lib/gcc/pic32mx/4.8.3/../../../../pic32mx/lib\libmchp_peripheral_32MX370F512L.a(int_tbl_lib.o)
                0x9d010e28                INTClearFlag

.text.INTSetFlag
                0x9d010e54       0x2c
 .text.INTSetFlag
                0x9d010e54       0x2c d:/program files - hdd/mplab compiler x32/bin/bin/../../lib/gcc/pic32mx/4.8.3/../../../../pic32mx/lib\libmchp_peripheral_32MX370F512L.a(int_tbl_lib.o)
                0x9d010e54                INTSetFlag

.text.INTGetFlag
                0x9d010e80       0x2c
 .text.INTGetFlag
                0x9d010e80       0x2c d:/program files - hdd/mplab compiler x32/bin/bin/../../lib/gcc/pic32mx/4.8.3/../../../../pic32mx/lib\libmchp_peripheral_32MX370F512L.a(int_tbl_lib.o)
                0x9d010e80                INTGetFlag

.text.INTGetEnable
                0x9d010eac       0x2c
 .text.INTGetEnable
                0x9d010eac       0x2c d:/program files - hdd/mplab compiler x32/bin/bin/../../lib/gcc/pic32mx/4.8.3/../../../../pic32mx/lib\libmchp_peripheral_32MX370F512L.a(int_tbl_lib.o)
                0x9d010eac                INTGetEnable

.text.strchr    0x9d010ed8       0x2c
 .text.strchr   0x9d010ed8       0x2c d:/program files - hdd/mplab compiler x32/bin/bin/../../lib/gcc/pic32mx/4.8.3/../../../../pic32mx/lib\libc.a(strchr.o)
                0x9d010ed8                strchr

.text.DmaChnSetEvEnableFlags
                0x9d010f04       0x28
 .text.DmaChnSetEvEnableFlags
                0x9d010f04       0x28 d:/program files - hdd/mplab compiler x32/bin/bin/../../lib/gcc/pic32mx/4.8.3/../../../../pic32mx/lib\libmchp_peripheral_32MX370F512L.a(dma_chn_set_ev_enable_flags_lib.o)
                0x9d010f04                DmaChnSetEvEnableFlags

.text.DmaChnEnable
                0x9d010f2c       0x28
 .text.DmaChnEnable
                0x9d010f2c       0x28 d:/program files - hdd/mplab compiler x32/bin/bin/../../lib/gcc/pic32mx/4.8.3/../../../../pic32mx/lib\libmchp_peripheral_32MX370F512L.a(dma_chn_enable_lib.o)
                0x9d010f2c                DmaChnEnable

.text.UARTSetFifoMode
                0x9d010f54       0x28
 .text.UARTSetFifoMode
                0x9d010f54       0x28 d:/program files - hdd/mplab compiler x32/bin/bin/../../lib/gcc/pic32mx/4.8.3/../../../../pic32mx/lib\libmchp_peripheral_32MX370F512L.a(uart_lib.o)
                0x9d010f54                UARTSetFifoMode

.text.UARTSetLineControl
                0x9d010f7c       0x28
 .text.UARTSetLineControl
                0x9d010f7c       0x28 d:/program files - hdd/mplab compiler x32/bin/bin/../../lib/gcc/pic32mx/4.8.3/../../../../pic32mx/lib\libmchp_peripheral_32MX370F512L.a(uart_lib.o)
                0x9d010f7c                UARTSetLineControl

.text.I2CEnable
                0x9d010fa4       0x28
 .text.I2CEnable
                0x9d010fa4       0x28 d:/program files - hdd/mplab compiler x32/bin/bin/../../lib/gcc/pic32mx/4.8.3/../../../../pic32mx/lib\libmchp_peripheral_32MX370F512L.a(I2CEnable.o)
                0x9d010fa4                I2CEnable

.text.strtod    0x9d010fcc       0x28
 .text.strtod   0x9d010fcc       0x28 d:/program files - hdd/mplab compiler x32/bin/bin/../../lib/gcc/pic32mx/4.8.3/../../../../pic32mx/lib\libc.a(strtod.o)
                0x9d010fcc                strtod

.rodata         0x9d010ff8       0x28
 .rodata        0x9d010ff8       0x28 d:/program files - hdd/mplab compiler x32/bin/bin/../../lib/gcc/pic32mx/4.8.3/../../../../pic32mx/lib\libm.a(w_atan2f.o)

.text.logb      0x9d011020       0x28
 .text.logb     0x9d011020       0x28 d:/program files - hdd/mplab compiler x32/bin/bin/../../lib/gcc/pic32mx/4.8.3/../../../../pic32mx/lib\libm.a(support.o)
                0x9d011020                logb

.text.logbf     0x9d011048       0x28
 .text.logbf    0x9d011048       0x28 d:/program files - hdd/mplab compiler x32/bin/bin/../../lib/gcc/pic32mx/4.8.3/../../../../pic32mx/lib\libm.a(support.o)
                0x9d011048                logbf

.text.drem      0x9d011070       0x28
 .text.drem     0x9d011070       0x28 d:/program files - hdd/mplab compiler x32/bin/bin/../../lib/gcc/pic32mx/4.8.3/../../../../pic32mx/lib\libm.a(support.o)
                0x9d011070                drem

.text.dremf     0x9d011098       0x28
 .text.dremf    0x9d011098       0x28 d:/program files - hdd/mplab compiler x32/bin/bin/../../lib/gcc/pic32mx/4.8.3/../../../../pic32mx/lib\libm.a(support.o)
                0x9d011098                dremf

.text.DmaChnGetEvFlags
                0x9d0110c0       0x24
 .text.DmaChnGetEvFlags
                0x9d0110c0       0x24 d:/program files - hdd/mplab compiler x32/bin/bin/../../lib/gcc/pic32mx/4.8.3/../../../../pic32mx/lib\libmchp_peripheral_32MX370F512L.a(dma_chn_get_ev_flags_lib.o)
                0x9d0110c0                DmaChnGetEvFlags

.text.DmaChnSetMatchPattern
                0x9d0110e4       0x24
 .text.DmaChnSetMatchPattern
                0x9d0110e4       0x24 d:/program files - hdd/mplab compiler x32/bin/bin/../../lib/gcc/pic32mx/4.8.3/../../../../pic32mx/lib\libmchp_peripheral_32MX370F512L.a(dma_chn_set_match_pattern_lib.o)
                0x9d0110e4                DmaChnSetMatchPattern

.text.I2CAcknowledgeHasCompleted
                0x9d011108       0x24
 .text.I2CAcknowledgeHasCompleted
                0x9d011108       0x24 d:/program files - hdd/mplab compiler x32/bin/bin/../../lib/gcc/pic32mx/4.8.3/../../../../pic32mx/lib\libmchp_peripheral_32MX370F512L.a(I2CAcknowledgeHasCompleted.o)
                0x9d011108                I2CAcknowledgeHasCompleted

.text.I2CByteWasAcknowledged
                0x9d01112c       0x24
 .text.I2CByteWasAcknowledged
                0x9d01112c       0x24 d:/program files - hdd/mplab compiler x32/bin/bin/../../lib/gcc/pic32mx/4.8.3/../../../../pic32mx/lib\libmchp_peripheral_32MX370F512L.a(I2CByteWasAcknowledged.o)
                0x9d01112c                I2CByteWasAcknowledged

.text.I2CStop   0x9d011150       0x24
 .text.I2CStop  0x9d011150       0x24 d:/program files - hdd/mplab compiler x32/bin/bin/../../lib/gcc/pic32mx/4.8.3/../../../../pic32mx/lib\libmchp_peripheral_32MX370F512L.a(I2CStop.o)
                0x9d011150                I2CStop

.text.I2CTransmissionHasCompleted
                0x9d011174       0x24
 .text.I2CTransmissionHasCompleted
                0x9d011174       0x24 d:/program files - hdd/mplab compiler x32/bin/bin/../../lib/gcc/pic32mx/4.8.3/../../../../pic32mx/lib\libmchp_peripheral_32MX370F512L.a(I2CTransmissionHasCompleted.o)
                0x9d011174                I2CTransmissionHasCompleted

.text.I2CTransmitterIsReady
                0x9d011198       0x24
 .text.I2CTransmitterIsReady
                0x9d011198       0x24 d:/program files - hdd/mplab compiler x32/bin/bin/../../lib/gcc/pic32mx/4.8.3/../../../../pic32mx/lib\libmchp_peripheral_32MX370F512L.a(I2CTransmitterIsReady.o)
                0x9d011198                I2CTransmitterIsReady

.text.tolower   0x9d0111bc       0x24
 .text.tolower  0x9d0111bc       0x24 d:/program files - hdd/mplab compiler x32/bin/bin/../../lib/gcc/pic32mx/4.8.3/../../../../pic32mx/lib\libc.a(ctypef.o)
                0x9d0111bc                tolower

.text.toupper   0x9d0111e0       0x24
 .text.toupper  0x9d0111e0       0x24 d:/program files - hdd/mplab compiler x32/bin/bin/../../lib/gcc/pic32mx/4.8.3/../../../../pic32mx/lib\libc.a(ctypef.o)
                0x9d0111e0                toupper

.rodata         0x9d011204       0x40
 .rodata        0x9d011204       0x20 build/default/production/_ext/1472/uart4.o
 .rodata        0x9d011224       0x20 build/default/production/_ext/1472/ADC_TEMP.o

.text.I2CGetByte
                0x9d011244       0x20
 .text.I2CGetByte
                0x9d011244       0x20 d:/program files - hdd/mplab compiler x32/bin/bin/../../lib/gcc/pic32mx/4.8.3/../../../../pic32mx/lib\libmchp_peripheral_32MX370F512L.a(I2CGetByte.o)
                0x9d011244                I2CGetByte

.text.I2CReceivedDataIsAvailable
                0x9d011264       0x20
 .text.I2CReceivedDataIsAvailable
                0x9d011264       0x20 d:/program files - hdd/mplab compiler x32/bin/bin/../../lib/gcc/pic32mx/4.8.3/../../../../pic32mx/lib\libmchp_peripheral_32MX370F512L.a(I2CReceivedDataIsAvailable.o)
                0x9d011264                I2CReceivedDataIsAvailable

.rodata         0x9d011288       0x3c
 .rodata        0x9d011288       0x20 d:/program files - hdd/mplab compiler x32/bin/bin/../../lib/gcc/pic32mx/4.8.3/../../../../pic32mx/lib\libm.a(support.o)
 .rodata        0x9d0112a8       0x1c build/default/production/_ext/1472/LCDlib.o

.rodata         0x9d0112c4       0x1c
 .rodata        0x9d0112c4       0x1c build/default/production/_ext/1472/Gamepad.o

.text.INTRestoreInterrupts
                0x9d0112e0       0x1c
 .text.INTRestoreInterrupts
                0x9d0112e0       0x1c d:/program files - hdd/mplab compiler x32/bin/bin/../../lib/gcc/pic32mx/4.8.3/../../../../pic32mx/lib\libmchp_peripheral_32MX370F512L.a(int_restore_interrupts_lib.o)
                0x9d0112e0                INTRestoreInterrupts

.text._dstrtod  0x9d0112fc       0x1c
 .text._dstrtod
                0x9d0112fc       0x1c d:/program files - hdd/mplab compiler x32/bin/bin/../../lib/gcc/pic32mx/4.8.3/../../../../pic32mx/lib\libc.a(strtod.o)
                0x9d0112fc                _dstrtod

.text.strtof    0x9d011318       0x1c
 .text.strtof   0x9d011318       0x1c d:/program files - hdd/mplab compiler x32/bin/bin/../../lib/gcc/pic32mx/4.8.3/../../../../pic32mx/lib\libc.a(strtof.o)
                0x9d011318                strtof

.text.strtodf   0x9d011334       0x1c
 .text.strtodf  0x9d011334       0x1c d:/program files - hdd/mplab compiler x32/bin/bin/../../lib/gcc/pic32mx/4.8.3/../../../../pic32mx/lib\libc.a(strtof.o)
                0x9d011334                strtodf

.text.finitel   0x9d011350       0x1c
 .text.finitel  0x9d011350       0x1c d:/program files - hdd/mplab compiler x32/bin/bin/../../lib/gcc/pic32mx/4.8.3/../../../../pic32mx/lib\libm.a(support.o)
                0x9d011350                finitel

.text.negdf2    0x9d01136c       0x1c
 .text.negdf2   0x9d01136c       0x1c d:/program files - hdd/mplab compiler x32/bin/bin/../../lib/gcc/pic32mx/4.8.3/../../../../pic32mx/lib\libm.a(negdf2.o)
                0x9d01136c                __negdf2

.text.CheKseg0CacheOff
                0x9d011388       0x18
 .text.CheKseg0CacheOff
                0x9d011388       0x18 d:/program files - hdd/mplab compiler x32/bin/bin/../../lib/gcc/pic32mx/4.8.3/../../../../pic32mx/lib\libmchp_peripheral_32MX370F512L.a(pcache.o)
                0x9d011388                CheKseg0CacheOff

.text.CheKseg0CacheOn
                0x9d0113a0       0x18
 .text.CheKseg0CacheOn
                0x9d0113a0       0x18 d:/program files - hdd/mplab compiler x32/bin/bin/../../lib/gcc/pic32mx/4.8.3/../../../../pic32mx/lib\libmchp_peripheral_32MX370F512L.a(pcache.o)
                0x9d0113a0                CheKseg0CacheOn

.text           0x9d0113b8       0x18
 .text          0x9d0113b8       0x18 d:/program files - hdd/mplab compiler x32/bin/bin/../../lib/gcc/pic32mx/4.8.3/../../../../pic32mx/lib\libpic32.a(default-nmi-handler.o)
                0x9d0113b8                _nmi_handler

.text.isalnum   0x9d0113d0       0x18
 .text.isalnum  0x9d0113d0       0x18 d:/program files - hdd/mplab compiler x32/bin/bin/../../lib/gcc/pic32mx/4.8.3/../../../../pic32mx/lib\libc.a(ctypef.o)
                0x9d0113d0                isalnum

.text.isalpha   0x9d0113e8       0x18
 .text.isalpha  0x9d0113e8       0x18 d:/program files - hdd/mplab compiler x32/bin/bin/../../lib/gcc/pic32mx/4.8.3/../../../../pic32mx/lib\libc.a(ctypef.o)
                0x9d0113e8                isalpha

.text.iscntrl   0x9d011400       0x18
 .text.iscntrl  0x9d011400       0x18 d:/program files - hdd/mplab compiler x32/bin/bin/../../lib/gcc/pic32mx/4.8.3/../../../../pic32mx/lib\libc.a(ctypef.o)
                0x9d011400                iscntrl

.text.isdigit   0x9d011418       0x18
 .text.isdigit  0x9d011418       0x18 d:/program files - hdd/mplab compiler x32/bin/bin/../../lib/gcc/pic32mx/4.8.3/../../../../pic32mx/lib\libc.a(ctypef.o)
                0x9d011418                isdigit

.text.isgraph   0x9d011430       0x18
 .text.isgraph  0x9d011430       0x18 d:/program files - hdd/mplab compiler x32/bin/bin/../../lib/gcc/pic32mx/4.8.3/../../../../pic32mx/lib\libc.a(ctypef.o)
                0x9d011430                isgraph

.text.islower   0x9d011448       0x18
 .text.islower  0x9d011448       0x18 d:/program files - hdd/mplab compiler x32/bin/bin/../../lib/gcc/pic32mx/4.8.3/../../../../pic32mx/lib\libc.a(ctypef.o)
                0x9d011448                islower

.text.isprint   0x9d011460       0x18
 .text.isprint  0x9d011460       0x18 d:/program files - hdd/mplab compiler x32/bin/bin/../../lib/gcc/pic32mx/4.8.3/../../../../pic32mx/lib\libc.a(ctypef.o)
                0x9d011460                isprint

.text.ispunct   0x9d011478       0x18
 .text.ispunct  0x9d011478       0x18 d:/program files - hdd/mplab compiler x32/bin/bin/../../lib/gcc/pic32mx/4.8.3/../../../../pic32mx/lib\libc.a(ctypef.o)
                0x9d011478                ispunct

.text.isspace   0x9d011490       0x18
 .text.isspace  0x9d011490       0x18 d:/program files - hdd/mplab compiler x32/bin/bin/../../lib/gcc/pic32mx/4.8.3/../../../../pic32mx/lib\libc.a(ctypef.o)
                0x9d011490                isspace

.text.isupper   0x9d0114a8       0x18
 .text.isupper  0x9d0114a8       0x18 d:/program files - hdd/mplab compiler x32/bin/bin/../../lib/gcc/pic32mx/4.8.3/../../../../pic32mx/lib\libc.a(ctypef.o)
                0x9d0114a8                isupper

.text.isxdigit  0x9d0114c0       0x18
 .text.isxdigit
                0x9d0114c0       0x18 d:/program files - hdd/mplab compiler x32/bin/bin/../../lib/gcc/pic32mx/4.8.3/../../../../pic32mx/lib\libc.a(ctypef.o)
                0x9d0114c0                isxdigit

.rodata         0x9d0114d8       0x2c
 .rodata        0x9d0114d8       0x18 d:/program files - hdd/mplab compiler x32/bin/bin/../../lib/gcc/pic32mx/4.8.3/../../../../pic32mx/lib\libm.a(__strtof.o)
 .rodata        0x9d0114f0       0x14 d:/program files - hdd/mplab compiler x32/bin/bin/../../lib/gcc/pic32mx/4.8.3/../../../../pic32mx/lib\libmchp_peripheral_32MX370F512L.a(uart_lib.o)
                0x9d0114f0                uartReg

.text.negsf2    0x9d011504       0x14
 .text.negsf2   0x9d011504       0x14 d:/program files - hdd/mplab compiler x32/bin/bin/../../lib/gcc/pic32mx/4.8.3/../../../../pic32mx/lib\libm.a(negsf2.o)
                0x9d011504                __negsf2

.rodata         0x9d011518       0x14
 .rodata        0x9d011518        0xc build/default/production/_ext/1472/RC.o
                0x9d011518                RCMid
                0x9d01151c                RCRight
                0x9d011520                RCLeft
 .rodata        0x9d011524        0x8 build/default/production/_ext/1472/Stepper.o

.text.ReadCoreTimer
                0x9d01152c        0x8
 .text.ReadCoreTimer
                0x9d01152c        0x8 d:/program files - hdd/mplab compiler x32/bin/bin/../../lib/gcc/pic32mx/4.8.3/../../../../pic32mx/lib\libmchp_peripheral.a(read_core_timer_lib.o)
                0x9d01152c                ReadCoreTimer

.text.INTEnableInterrupts
                0x9d011534        0x8
 .text.INTEnableInterrupts
                0x9d011534        0x8 d:/program files - hdd/mplab compiler x32/bin/bin/../../lib/gcc/pic32mx/4.8.3/../../../../pic32mx/lib\libmchp_peripheral_32MX370F512L.a(int_enable_interrupts_lib.o)
                0x9d011534                INTEnableInterrupts

.text.INTDisableInterrupts
                0x9d01153c        0x8
 .text.INTDisableInterrupts
                0x9d01153c        0x8 d:/program files - hdd/mplab compiler x32/bin/bin/../../lib/gcc/pic32mx/4.8.3/../../../../pic32mx/lib\libmchp_peripheral_32MX370F512L.a(int_disable_interrupts_lib.o)
                0x9d01153c                INTDisableInterrupts

.rodata         0x9d011544        0x8
 .rodata        0x9d011544        0x8 d:/program files - hdd/mplab compiler x32/bin/bin/../../lib/gcc/pic32mx/4.8.3/../../../../pic32mx/lib\libmchp_peripheral_32MX370F512L.a(I2CPrivate.o)
                0x9d011544                i2cBase

.text._on_reset
                0x9d01154c        0x8
 .text._on_reset
                0x9d01154c        0x8 d:/program files - hdd/mplab compiler x32/bin/bin/../../lib/gcc/pic32mx/4.8.3/../../../../pic32mx/lib\libpic32.a(default-on-reset.o)
                0x9d01154c                _on_reset

.text._on_bootstrap
                0x9d011554        0x8
 .text._on_bootstrap
                0x9d011554        0x8 d:/program files - hdd/mplab compiler x32/bin/bin/../../lib/gcc/pic32mx/4.8.3/../../../../pic32mx/lib\libpic32.a(default-on-bootstrap.o)
                0x9d011554                _on_bootstrap

.text.isascii   0x9d01155c        0x8
 .text.isascii  0x9d01155c        0x8 d:/program files - hdd/mplab compiler x32/bin/bin/../../lib/gcc/pic32mx/4.8.3/../../../../pic32mx/lib\libc.a(ctypef.o)
                0x9d01155c                isascii

.text.toascii   0x9d011564        0x8
 .text.toascii  0x9d011564        0x8 d:/program files - hdd/mplab compiler x32/bin/bin/../../lib/gcc/pic32mx/4.8.3/../../../../pic32mx/lib\libc.a(ctypef.o)
                0x9d011564                toascii

.text._tolower  0x9d01156c        0x8
 .text._tolower
                0x9d01156c        0x8 d:/program files - hdd/mplab compiler x32/bin/bin/../../lib/gcc/pic32mx/4.8.3/../../../../pic32mx/lib\libc.a(ctypef.o)
                0x9d01156c                _tolower

.text._toupper  0x9d011574        0x8
 .text._toupper
                0x9d011574        0x8 d:/program files - hdd/mplab compiler x32/bin/bin/../../lib/gcc/pic32mx/4.8.3/../../../../pic32mx/lib\libc.a(ctypef.o)
                0x9d011574                _toupper

.rodata         0x9d011580       0x10
 .rodata        0x9d011580        0x8 d:/program files - hdd/mplab compiler x32/bin/bin/../../lib/gcc/pic32mx/4.8.3\libgcc.a(_floatundidf.o)
 .rodata        0x9d011588        0x8 d:/program files - hdd/mplab compiler x32/bin/bin/../../lib/gcc/pic32mx/4.8.3\libgcc.a(floatunsidf.o)

.rodata         0x9d010ff4        0x4
 .rodata        0x9d010ff4        0x4 d:/program files - hdd/mplab compiler x32/bin/bin/../../lib/gcc/pic32mx/4.8.3/../../../../pic32mx/lib\libmchp_peripheral_32MX370F512L.a(dma_reg_map_tbl_lib.o)
                0x9d010ff4                _DmaMapTbl

.text           0x00000000        0x0
 .text          0x00000000        0x0 d:/program files - hdd/mplab compiler x32/bin/bin/../../lib/gcc/pic32mx/4.8.3/../../../../pic32mx/lib\libpic32.a(xc32_uart.o)

.text           0x00000000        0x0
 .text          0x00000000        0x0 d:/program files - hdd/mplab compiler x32/bin/bin/../../lib/gcc/pic32mx/4.8.3/../../../../pic32mx/lib\libpic32.a(write.o)

.text           0x00000000        0x0
 .text          0x00000000        0x0 d:/program files - hdd/mplab compiler x32/bin/bin/../../lib/gcc/pic32mx/4.8.3/../../../../pic32mx/lib\libpic32.a(read.o)

.text           0x00000000        0x0
 .text          0x00000000        0x0 d:/program files - hdd/mplab compiler x32/bin/bin/../../lib/gcc/pic32mx/4.8.3/../../../../pic32mx/lib\libe.a(_fixdfdi.o)

.text           0x00000000        0x0
 .text          0x00000000        0x0 d:/program files - hdd/mplab compiler x32/bin/bin/../../lib/gcc/pic32mx/4.8.3/../../../../pic32mx/lib\libe.a(_ldexpf.o)

.text           0x00000000        0x0
 .text          0x00000000        0x0 d:/program files - hdd/mplab compiler x32/bin/bin/../../lib/gcc/pic32mx/4.8.3/../../../../pic32mx/lib\libe.a(_ldexp.o)

.text           0x00000000        0x0
 .text          0x00000000        0x0 d:/program files - hdd/mplab compiler x32/bin/bin/../../lib/gcc/pic32mx/4.8.3/../../../../pic32mx/lib\libe.a(_orderdf2.o)

.text           0x00000000        0x0
 .text          0x00000000        0x0 d:/program files - hdd/mplab compiler x32/bin/bin/../../lib/gcc/pic32mx/4.8.3/../../../../pic32mx/lib\libe.a(_fixunsdfdi.o)

.text           0x00000000        0x0
 .text          0x00000000        0x0 d:/program files - hdd/mplab compiler x32/bin/bin/../../lib/gcc/pic32mx/4.8.3/../../../../pic32mx/lib\libm.a(negsf2.o)

.text           0x00000000        0x0
 .text          0x00000000        0x0 d:/program files - hdd/mplab compiler x32/bin/bin/../../lib/gcc/pic32mx/4.8.3/../../../../pic32mx/lib\libm.a(negdf2.o)

.text           0x00000000        0x0
 .text          0x00000000        0x0 d:/program files - hdd/mplab compiler x32/bin/bin/../../lib/gcc/pic32mx/4.8.3/../../../../pic32mx/lib\libm.a(litodp.o)

.text           0x00000000        0x0
 .text          0x00000000        0x0 d:/program files - hdd/mplab compiler x32/bin/bin/../../lib/gcc/pic32mx/4.8.3/../../../../pic32mx/lib\libm.a(fpexsqrt32.o)

.text.fpexatan  0x00000000        0x0
 .text.fpexatan
                0x00000000        0x0 d:/program files - hdd/mplab compiler x32/bin/bin/../../lib/gcc/pic32mx/4.8.3/../../../../pic32mx/lib\libm.a(fpexatan.o)

.text           0x00000000        0x0
 .text          0x00000000        0x0 d:/program files - hdd/mplab compiler x32/bin/bin/../../lib/gcc/pic32mx/4.8.3/../../../../pic32mx/lib\libm.a(fpexatan.o)

.text           0x00000000        0x0
 .text          0x00000000        0x0 d:/program files - hdd/mplab compiler x32/bin/bin/../../lib/gcc/pic32mx/4.8.3/../../../../pic32mx/lib\libm.a(fpatan2.o)

.text           0x00000000        0x0
 .text          0x00000000        0x0 d:/program files - hdd/mplab compiler x32/bin/bin/../../lib/gcc/pic32mx/4.8.3/../../../../pic32mx/lib\libm.a(dpldexp.o)

.text           0x00000000        0x0
 .text          0x00000000        0x0 d:/program files - hdd/mplab compiler x32/bin/bin/../../lib/gcc/pic32mx/4.8.3/../../../../pic32mx/lib\libm.a(support.o)

.text           0x00000000        0x0
 .text          0x00000000        0x0 d:/program files - hdd/mplab compiler x32/bin/bin/../../lib/gcc/pic32mx/4.8.3/../../../../pic32mx/lib\libm.a(__strtof.o)

.text           0x00000000        0x0
 .text          0x00000000        0x0 d:/program files - hdd/mplab compiler x32/bin/bin/../../lib/gcc/pic32mx/4.8.3/../../../../pic32mx/lib\libm.a(__strtod.o)

.text           0x00000000        0x0
 .text          0x00000000        0x0 d:/program files - hdd/mplab compiler x32/bin/bin/../../lib/gcc/pic32mx/4.8.3/../../../../pic32mx/lib\libm.a(w_atan2f.o)

.text           0x00000000        0x0
 .text          0x00000000        0x0 d:/program files - hdd/mplab compiler x32/bin/bin/../../lib/gcc/pic32mx/4.8.3/../../../../pic32mx/lib\libm.a(sitofp.o)

.text           0x00000000        0x0
 .text          0x00000000        0x0 d:/program files - hdd/mplab compiler x32/bin/bin/../../lib/gcc/pic32mx/4.8.3/../../../../pic32mx/lib\libm.a(fptoli.o)

.text           0x00000000        0x0
 .text          0x00000000        0x0 d:/program files - hdd/mplab compiler x32/bin/bin/../../lib/gcc/pic32mx/4.8.3/../../../../pic32mx/lib\libm.a(fptodp.o)

.text           0x00000000        0x0
 .text          0x00000000        0x0 d:/program files - hdd/mplab compiler x32/bin/bin/../../lib/gcc/pic32mx/4.8.3/../../../../pic32mx/lib\libm.a(fpcmp.o)

.text           0x00000000        0x0
 .text          0x00000000        0x0 d:/program files - hdd/mplab compiler x32/bin/bin/../../lib/gcc/pic32mx/4.8.3/../../../../pic32mx/lib\libm.a(fp32subadd.o)

.text           0x00000000        0x0
 .text          0x00000000        0x0 d:/program files - hdd/mplab compiler x32/bin/bin/../../lib/gcc/pic32mx/4.8.3/../../../../pic32mx/lib\libm.a(fp32mul.o)

.text           0x00000000        0x0
 .text          0x00000000        0x0 d:/program files - hdd/mplab compiler x32/bin/bin/../../lib/gcc/pic32mx/4.8.3/../../../../pic32mx/lib\libm.a(fp32div.o)

.text           0x00000000        0x0
 .text          0x00000000        0x0 d:/program files - hdd/mplab compiler x32/bin/bin/../../lib/gcc/pic32mx/4.8.3/../../../../pic32mx/lib\libm.a(dptofp.o)

.text           0x00000000        0x0
 .text          0x00000000        0x0 d:/program files - hdd/mplab compiler x32/bin/bin/../../lib/gcc/pic32mx/4.8.3/../../../../pic32mx/lib\libm.a(dpcmp.o)

.text           0x00000000        0x0
 .text          0x00000000        0x0 d:/program files - hdd/mplab compiler x32/bin/bin/../../lib/gcc/pic32mx/4.8.3/../../../../pic32mx/lib\libm.a(dp32subadd.o)

.text           0x00000000        0x0
 .text          0x00000000        0x0 d:/program files - hdd/mplab compiler x32/bin/bin/../../lib/gcc/pic32mx/4.8.3/../../../../pic32mx/lib\libm.a(dp32mul.o)

.text           0x00000000        0x0
 .text          0x00000000        0x0 d:/program files - hdd/mplab compiler x32/bin/bin/../../lib/gcc/pic32mx/4.8.3/../../../../pic32mx/lib\libm.a(dp32div.o)

.text           0x00000000        0x0
 .text          0x00000000        0x0 d:/program files - hdd/mplab compiler x32/bin/bin/../../lib/gcc/pic32mx/4.8.3/../../../../pic32mx/lib\libm.a(dpfrexp.o)

.text           0x00000000        0x0
 .text          0x00000000        0x0 d:/program files - hdd/mplab compiler x32/bin/bin/../../lib/gcc/pic32mx/4.8.3/../../../../pic32mx/lib\libc.a(fflush.o)

.text           0x00000000        0x0
 .text          0x00000000        0x0 d:/program files - hdd/mplab compiler x32/bin/bin/../../lib/gcc/pic32mx/4.8.3/../../../../pic32mx/lib\libc.a(filbuf.o)

.text           0x00000000        0x0
 .text          0x00000000        0x0 d:/program files - hdd/mplab compiler x32/bin/bin/../../lib/gcc/pic32mx/4.8.3/../../../../pic32mx/lib\libc.a(ungetc.o)

.text           0x00000000        0x0
 .text          0x00000000        0x0 d:/program files - hdd/mplab compiler x32/bin/bin/../../lib/gcc/pic32mx/4.8.3/../../../../pic32mx/lib\libc.a(strtof.o)

.text           0x00000000        0x0
 .text          0x00000000        0x0 d:/program files - hdd/mplab compiler x32/bin/bin/../../lib/gcc/pic32mx/4.8.3/../../../../pic32mx/lib\libc.a(strtod.o)

.text           0x00000000        0x0
 .text          0x00000000        0x0 d:/program files - hdd/mplab compiler x32/bin/bin/../../lib/gcc/pic32mx/4.8.3/../../../../pic32mx/lib\libc.a(ldpowers.o)

.text           0x00000000        0x0
 .text          0x00000000        0x0 d:/program files - hdd/mplab compiler x32/bin/bin/../../lib/gcc/pic32mx/4.8.3/../../../../pic32mx/lib\libc.a(atoi.o)

.text           0x00000000        0x0
 .text          0x00000000        0x0 d:/program files - hdd/mplab compiler x32/bin/bin/../../lib/gcc/pic32mx/4.8.3/../../../../pic32mx/lib\libc.a(fgetc.o)

.text           0x00000000        0x0
 .text          0x00000000        0x0 d:/program files - hdd/mplab compiler x32/bin/bin/../../lib/gcc/pic32mx/4.8.3/../../../../pic32mx/lib\libc.a(_flsbuf_simple.o)

.text           0x00000000        0x0
 .text          0x00000000        0x0 d:/program files - hdd/mplab compiler x32/bin/bin/../../lib/gcc/pic32mx/4.8.3/../../../../pic32mx/lib\libc.a(doscan_cdfFnopuxX.eo)

.text           0x00000000        0x0
 .text          0x00000000        0x0 d:/program files - hdd/mplab compiler x32/bin/bin/../../lib/gcc/pic32mx/4.8.3/../../../../pic32mx/lib\libc.a(doprnt_cdfFnopsuxX.eo)

.text           0x00000000        0x0
 .text          0x00000000        0x0 d:/program files - hdd/mplab compiler x32/bin/bin/../../lib/gcc/pic32mx/4.8.3/../../../../pic32mx/lib\libc.a(strncmp.o)

.text           0x00000000        0x0
 .text          0x00000000        0x0 d:/program files - hdd/mplab compiler x32/bin/bin/../../lib/gcc/pic32mx/4.8.3/../../../../pic32mx/lib\libc.a(errno.o)

.text           0x00000000        0x0
 .text          0x00000000        0x0 d:/program files - hdd/mplab compiler x32/bin/bin/../../lib/gcc/pic32mx/4.8.3/../../../../pic32mx/lib\libc.a(ctypef.o)

.text           0x00000000        0x0
 .text          0x00000000        0x0 d:/program files - hdd/mplab compiler x32/bin/bin/../../lib/gcc/pic32mx/4.8.3/../../../../pic32mx/lib\libc.a(_fputc_simple.o)

.text           0x00000000        0x0
 .text          0x00000000        0x0 d:/program files - hdd/mplab compiler x32/bin/bin/../../lib/gcc/pic32mx/4.8.3/../../../../pic32mx/lib\libc.a(_iob.o)

.text           0x00000000        0x0
 .text          0x00000000        0x0 d:/program files - hdd/mplab compiler x32/bin/bin/../../lib/gcc/pic32mx/4.8.3/../../../../pic32mx/lib\libc.a(sscanf_cdfFnopuxX.eo)

.text           0x00000000        0x0
 .text          0x00000000        0x0 d:/program files - hdd/mplab compiler x32/bin/bin/../../lib/gcc/pic32mx/4.8.3/../../../../pic32mx/lib\libc.a(sprintf_cdnopuxX.eo)

.text           0x00000000        0x0
 .text          0x00000000        0x0 d:/program files - hdd/mplab compiler x32/bin/bin/../../lib/gcc/pic32mx/4.8.3/../../../../pic32mx/lib\libc.a(printf_cdfFnopsuxX.eo)

.text           0x00000000        0x0
 .text          0x00000000        0x0 d:/program files - hdd/mplab compiler x32/bin/bin/../../lib/gcc/pic32mx/4.8.3/../../../../pic32mx/lib\libc.a(strtol.o)

.text           0x00000000        0x0
 .text          0x00000000        0x0 d:/program files - hdd/mplab compiler x32/bin/bin/../../lib/gcc/pic32mx/4.8.3/../../../../pic32mx/lib\libc.a(strstr.o)

.text           0x00000000        0x0
 .text          0x00000000        0x0 d:/program files - hdd/mplab compiler x32/bin/bin/../../lib/gcc/pic32mx/4.8.3/../../../../pic32mx/lib\libc.a(strchr.o)

.text           0x00000000        0x0
 .text          0x00000000        0x0 d:/program files - hdd/mplab compiler x32/bin/bin/../../lib/gcc/pic32mx/4.8.3/../../../../pic32mx/lib\libc.a(puts.o)

.text           0x00000000        0x0
 .text          0x00000000        0x0 d:/program files - hdd/mplab compiler x32/bin/bin/../../lib/gcc/pic32mx/4.8.3/../../../../pic32mx/lib\libc.a(ctype.o)

.text           0x00000000        0x0
 .text          0x00000000        0x0 d:/program files - hdd/mplab compiler x32/bin/bin/../../lib/gcc/pic32mx/4.8.3/../../../../pic32mx/lib\libpic32.a(defaultinterrupt.o)

.text           0x00000000        0x0
 .text          0x00000000        0x0 d:/program files - hdd/mplab compiler x32/bin/bin/../../lib/gcc/pic32mx/4.8.3/../../../../pic32mx/lib\libpic32.a(default-general-exception-handler.o)

.text           0x00000000        0x0
 .text          0x00000000        0x0 d:/program files - hdd/mplab compiler x32/bin/bin/../../lib/gcc/pic32mx/4.8.3/../../../../pic32mx/lib\libpic32.a(vector45.o)

.text           0x00000000        0x0
 .text          0x00000000        0x0 d:/program files - hdd/mplab compiler x32/bin/bin/../../lib/gcc/pic32mx/4.8.3/../../../../pic32mx/lib\libpic32.a(vector44.o)

.text           0x00000000        0x0
 .text          0x00000000        0x0 d:/program files - hdd/mplab compiler x32/bin/bin/../../lib/gcc/pic32mx/4.8.3/../../../../pic32mx/lib\libpic32.a(vector42.o)

.text           0x00000000        0x0
 .text          0x00000000        0x0 d:/program files - hdd/mplab compiler x32/bin/bin/../../lib/gcc/pic32mx/4.8.3/../../../../pic32mx/lib\libpic32.a(vector41.o)

.text           0x00000000        0x0
 .text          0x00000000        0x0 d:/program files - hdd/mplab compiler x32/bin/bin/../../lib/gcc/pic32mx/4.8.3/../../../../pic32mx/lib\libpic32.a(vector40.o)

.text           0x00000000        0x0
 .text          0x00000000        0x0 d:/program files - hdd/mplab compiler x32/bin/bin/../../lib/gcc/pic32mx/4.8.3/../../../../pic32mx/lib\libpic32.a(vector39.o)

.text           0x00000000        0x0
 .text          0x00000000        0x0 d:/program files - hdd/mplab compiler x32/bin/bin/../../lib/gcc/pic32mx/4.8.3/../../../../pic32mx/lib\libpic32.a(vector38.o)

.text           0x00000000        0x0
 .text          0x00000000        0x0 d:/program files - hdd/mplab compiler x32/bin/bin/../../lib/gcc/pic32mx/4.8.3/../../../../pic32mx/lib\libpic32.a(vector37.o)

.text           0x00000000        0x0
 .text          0x00000000        0x0 d:/program files - hdd/mplab compiler x32/bin/bin/../../lib/gcc/pic32mx/4.8.3/../../../../pic32mx/lib\libpic32.a(vector35.o)

.text           0x00000000        0x0
 .text          0x00000000        0x0 d:/program files - hdd/mplab compiler x32/bin/bin/../../lib/gcc/pic32mx/4.8.3/../../../../pic32mx/lib\libpic32.a(vector34.o)

.text           0x00000000        0x0
 .text          0x00000000        0x0 d:/program files - hdd/mplab compiler x32/bin/bin/../../lib/gcc/pic32mx/4.8.3/../../../../pic32mx/lib\libpic32.a(vector32.o)

.text           0x00000000        0x0
 .text          0x00000000        0x0 d:/program files - hdd/mplab compiler x32/bin/bin/../../lib/gcc/pic32mx/4.8.3/../../../../pic32mx/lib\libpic32.a(vector31.o)

.text           0x00000000        0x0
 .text          0x00000000        0x0 d:/program files - hdd/mplab compiler x32/bin/bin/../../lib/gcc/pic32mx/4.8.3/../../../../pic32mx/lib\libpic32.a(vector30.o)

.text           0x00000000        0x0
 .text          0x00000000        0x0 d:/program files - hdd/mplab compiler x32/bin/bin/../../lib/gcc/pic32mx/4.8.3/../../../../pic32mx/lib\libpic32.a(vector29.o)

.text           0x00000000        0x0
 .text          0x00000000        0x0 d:/program files - hdd/mplab compiler x32/bin/bin/../../lib/gcc/pic32mx/4.8.3/../../../../pic32mx/lib\libpic32.a(vector28.o)

.text           0x00000000        0x0
 .text          0x00000000        0x0 d:/program files - hdd/mplab compiler x32/bin/bin/../../lib/gcc/pic32mx/4.8.3/../../../../pic32mx/lib\libpic32.a(vector27.o)

.text           0x00000000        0x0
 .text          0x00000000        0x0 d:/program files - hdd/mplab compiler x32/bin/bin/../../lib/gcc/pic32mx/4.8.3/../../../../pic32mx/lib\libpic32.a(vector26.o)

.text           0x00000000        0x0
 .text          0x00000000        0x0 d:/program files - hdd/mplab compiler x32/bin/bin/../../lib/gcc/pic32mx/4.8.3/../../../../pic32mx/lib\libpic32.a(vector25.o)

.text           0x00000000        0x0
 .text          0x00000000        0x0 d:/program files - hdd/mplab compiler x32/bin/bin/../../lib/gcc/pic32mx/4.8.3/../../../../pic32mx/lib\libpic32.a(vector24.o)

.text           0x00000000        0x0
 .text          0x00000000        0x0 d:/program files - hdd/mplab compiler x32/bin/bin/../../lib/gcc/pic32mx/4.8.3/../../../../pic32mx/lib\libpic32.a(vector23.o)

.text           0x00000000        0x0
 .text          0x00000000        0x0 d:/program files - hdd/mplab compiler x32/bin/bin/../../lib/gcc/pic32mx/4.8.3/../../../../pic32mx/lib\libpic32.a(vector22.o)

.text           0x00000000        0x0
 .text          0x00000000        0x0 d:/program files - hdd/mplab compiler x32/bin/bin/../../lib/gcc/pic32mx/4.8.3/../../../../pic32mx/lib\libpic32.a(vector21.o)

.text           0x00000000        0x0
 .text          0x00000000        0x0 d:/program files - hdd/mplab compiler x32/bin/bin/../../lib/gcc/pic32mx/4.8.3/../../../../pic32mx/lib\libpic32.a(vector20.o)

.text           0x00000000        0x0
 .text          0x00000000        0x0 d:/program files - hdd/mplab compiler x32/bin/bin/../../lib/gcc/pic32mx/4.8.3/../../../../pic32mx/lib\libpic32.a(vector19.o)

.text           0x00000000        0x0
 .text          0x00000000        0x0 d:/program files - hdd/mplab compiler x32/bin/bin/../../lib/gcc/pic32mx/4.8.3/../../../../pic32mx/lib\libpic32.a(vector18.o)

.text           0x00000000        0x0
 .text          0x00000000        0x0 d:/program files - hdd/mplab compiler x32/bin/bin/../../lib/gcc/pic32mx/4.8.3/../../../../pic32mx/lib\libpic32.a(vector17.o)

.text           0x00000000        0x0
 .text          0x00000000        0x0 d:/program files - hdd/mplab compiler x32/bin/bin/../../lib/gcc/pic32mx/4.8.3/../../../../pic32mx/lib\libpic32.a(vector16.o)

.text           0x00000000        0x0
 .text          0x00000000        0x0 d:/program files - hdd/mplab compiler x32/bin/bin/../../lib/gcc/pic32mx/4.8.3/../../../../pic32mx/lib\libpic32.a(vector15.o)

.text           0x00000000        0x0
 .text          0x00000000        0x0 d:/program files - hdd/mplab compiler x32/bin/bin/../../lib/gcc/pic32mx/4.8.3/../../../../pic32mx/lib\libpic32.a(vector14.o)

.text           0x00000000        0x0
 .text          0x00000000        0x0 d:/program files - hdd/mplab compiler x32/bin/bin/../../lib/gcc/pic32mx/4.8.3/../../../../pic32mx/lib\libpic32.a(vector13.o)

.text           0x00000000        0x0
 .text          0x00000000        0x0 d:/program files - hdd/mplab compiler x32/bin/bin/../../lib/gcc/pic32mx/4.8.3/../../../../pic32mx/lib\libpic32.a(vector12.o)

.text           0x00000000        0x0
 .text          0x00000000        0x0 d:/program files - hdd/mplab compiler x32/bin/bin/../../lib/gcc/pic32mx/4.8.3/../../../../pic32mx/lib\libpic32.a(vector11.o)

.text           0x00000000        0x0
 .text          0x00000000        0x0 d:/program files - hdd/mplab compiler x32/bin/bin/../../lib/gcc/pic32mx/4.8.3/../../../../pic32mx/lib\libpic32.a(vector10.o)

.text           0x00000000        0x0
 .text          0x00000000        0x0 d:/program files - hdd/mplab compiler x32/bin/bin/../../lib/gcc/pic32mx/4.8.3/../../../../pic32mx/lib\libpic32.a(vector9.o)

.text           0x00000000        0x0
 .text          0x00000000        0x0 d:/program files - hdd/mplab compiler x32/bin/bin/../../lib/gcc/pic32mx/4.8.3/../../../../pic32mx/lib\libpic32.a(vector8.o)

.text           0x00000000        0x0
 .text          0x00000000        0x0 d:/program files - hdd/mplab compiler x32/bin/bin/../../lib/gcc/pic32mx/4.8.3/../../../../pic32mx/lib\libpic32.a(vector7.o)

.text           0x00000000        0x0
 .text          0x00000000        0x0 d:/program files - hdd/mplab compiler x32/bin/bin/../../lib/gcc/pic32mx/4.8.3/../../../../pic32mx/lib\libpic32.a(vector6.o)

.text           0x00000000        0x0
 .text          0x00000000        0x0 d:/program files - hdd/mplab compiler x32/bin/bin/../../lib/gcc/pic32mx/4.8.3/../../../../pic32mx/lib\libpic32.a(vector5.o)

.text           0x00000000        0x0
 .text          0x00000000        0x0 d:/program files - hdd/mplab compiler x32/bin/bin/../../lib/gcc/pic32mx/4.8.3/../../../../pic32mx/lib\libpic32.a(vector3.o)

.text           0x00000000        0x0
 .text          0x00000000        0x0 d:/program files - hdd/mplab compiler x32/bin/bin/../../lib/gcc/pic32mx/4.8.3/../../../../pic32mx/lib\libpic32.a(vector2.o)

.text           0x00000000        0x0
 .text          0x00000000        0x0 d:/program files - hdd/mplab compiler x32/bin/bin/../../lib/gcc/pic32mx/4.8.3/../../../../pic32mx/lib\libpic32.a(vector1.o)

.text           0x00000000        0x0
 .text          0x00000000        0x0 d:/program files - hdd/mplab compiler x32/bin/bin/../../lib/gcc/pic32mx/4.8.3/../../../../pic32mx/lib\libpic32.a(vector0.o)

.text           0x00000000        0x0
 .text          0x00000000        0x0 d:/program files - hdd/mplab compiler x32/bin/bin/../../lib/gcc/pic32mx/4.8.3/../../../../pic32mx/lib\libpic32.a(general-exception.o)

.text           0x00000000        0x0
 .text          0x00000000        0x0 d:/program files - hdd/mplab compiler x32/bin/bin/../../lib/gcc/pic32mx/4.8.3/../../../../pic32mx/lib\libpic32.a(default-on-bootstrap.o)

.text           0x00000000        0x0
 .text          0x00000000        0x0 d:/program files - hdd/mplab compiler x32/bin/bin/../../lib/gcc/pic32mx/4.8.3/../../../../pic32mx/lib\libpic32.a(default-on-reset.o)

.text           0x00000000        0x0
 .text          0x00000000        0x0 d:/program files - hdd/mplab compiler x32/bin/bin/../../lib/gcc/pic32mx/4.8.3/../../../../pic32mx/lib\libpic32.a(default-bootstrap-exception-handler.o)

.text           0x00000000        0x0
 .text          0x00000000        0x0 d:/program files - hdd/mplab compiler x32/bin/bin/../../lib/gcc/pic32mx/4.8.3/../../../../pic32mx/lib\libmchp_peripheral_32MX370F512L.a(I2CPrivate.o)

.text           0x00000000        0x0
 .text          0x00000000        0x0 d:/program files - hdd/mplab compiler x32/bin/bin/../../lib/gcc/pic32mx/4.8.3/../../../../pic32mx/lib\libmchp_peripheral_32MX370F512L.a(I2CTransmitterIsReady.o)

.text           0x00000000        0x0
 .text          0x00000000        0x0 d:/program files - hdd/mplab compiler x32/bin/bin/../../lib/gcc/pic32mx/4.8.3/../../../../pic32mx/lib\libmchp_peripheral_32MX370F512L.a(I2CTransmissionHasCompleted.o)

.text           0x00000000        0x0
 .text          0x00000000        0x0 d:/program files - hdd/mplab compiler x32/bin/bin/../../lib/gcc/pic32mx/4.8.3/../../../../pic32mx/lib\libmchp_peripheral_32MX370F512L.a(I2CStop.o)

.text           0x00000000        0x0
 .text          0x00000000        0x0 d:/program files - hdd/mplab compiler x32/bin/bin/../../lib/gcc/pic32mx/4.8.3/../../../../pic32mx/lib\libmchp_peripheral_32MX370F512L.a(I2CStart.o)

.text           0x00000000        0x0
 .text          0x00000000        0x0 d:/program files - hdd/mplab compiler x32/bin/bin/../../lib/gcc/pic32mx/4.8.3/../../../../pic32mx/lib\libmchp_peripheral_32MX370F512L.a(I2CSetFrequency.o)

.text           0x00000000        0x0
 .text          0x00000000        0x0 d:/program files - hdd/mplab compiler x32/bin/bin/../../lib/gcc/pic32mx/4.8.3/../../../../pic32mx/lib\libmchp_peripheral_32MX370F512L.a(I2CSendByte.o)

.text           0x00000000        0x0
 .text          0x00000000        0x0 d:/program files - hdd/mplab compiler x32/bin/bin/../../lib/gcc/pic32mx/4.8.3/../../../../pic32mx/lib\libmchp_peripheral_32MX370F512L.a(I2CRepeatStart.o)

.text           0x00000000        0x0
 .text          0x00000000        0x0 d:/program files - hdd/mplab compiler x32/bin/bin/../../lib/gcc/pic32mx/4.8.3/../../../../pic32mx/lib\libmchp_peripheral_32MX370F512L.a(I2CReceiverEnable.o)

.text           0x00000000        0x0
 .text          0x00000000        0x0 d:/program files - hdd/mplab compiler x32/bin/bin/../../lib/gcc/pic32mx/4.8.3/../../../../pic32mx/lib\libmchp_peripheral_32MX370F512L.a(I2CReceivedDataIsAvailable.o)

.text           0x00000000        0x0
 .text          0x00000000        0x0 d:/program files - hdd/mplab compiler x32/bin/bin/../../lib/gcc/pic32mx/4.8.3/../../../../pic32mx/lib\libmchp_peripheral_32MX370F512L.a(I2CGetStatus.o)

.text           0x00000000        0x0
 .text          0x00000000        0x0 d:/program files - hdd/mplab compiler x32/bin/bin/../../lib/gcc/pic32mx/4.8.3/../../../../pic32mx/lib\libmchp_peripheral_32MX370F512L.a(I2CGetByte.o)

.text           0x00000000        0x0
 .text          0x00000000        0x0 d:/program files - hdd/mplab compiler x32/bin/bin/../../lib/gcc/pic32mx/4.8.3/../../../../pic32mx/lib\libmchp_peripheral_32MX370F512L.a(I2CEnable.o)

.text           0x00000000        0x0
 .text          0x00000000        0x0 d:/program files - hdd/mplab compiler x32/bin/bin/../../lib/gcc/pic32mx/4.8.3/../../../../pic32mx/lib\libmchp_peripheral_32MX370F512L.a(I2CByteWasAcknowledged.o)

.text           0x00000000        0x0
 .text          0x00000000        0x0 d:/program files - hdd/mplab compiler x32/bin/bin/../../lib/gcc/pic32mx/4.8.3/../../../../pic32mx/lib\libmchp_peripheral_32MX370F512L.a(I2CBusIsIdle.o)

.text           0x00000000        0x0
 .text          0x00000000        0x0 d:/program files - hdd/mplab compiler x32/bin/bin/../../lib/gcc/pic32mx/4.8.3/../../../../pic32mx/lib\libmchp_peripheral_32MX370F512L.a(I2CAcknowledgeHasCompleted.o)

.text           0x00000000        0x0
 .text          0x00000000        0x0 d:/program files - hdd/mplab compiler x32/bin/bin/../../lib/gcc/pic32mx/4.8.3/../../../../pic32mx/lib\libmchp_peripheral_32MX370F512L.a(I2CAcknowledgeByte.o)

.text           0x00000000        0x0
 .text          0x00000000        0x0 d:/program files - hdd/mplab compiler x32/bin/bin/../../lib/gcc/pic32mx/4.8.3/../../../../pic32mx/lib\libmchp_peripheral_32MX370F512L.a(uart_lib.o)

.text           0x00000000        0x0
 .text          0x00000000        0x0 d:/program files - hdd/mplab compiler x32/bin/bin/../../lib/gcc/pic32mx/4.8.3/../../../../pic32mx/lib\libmchp_peripheral_32MX370F512L.a(_ports_tbl_libp.o)

.text           0x00000000        0x0
 .text          0x00000000        0x0 d:/program files - hdd/mplab compiler x32/bin/bin/../../lib/gcc/pic32mx/4.8.3/../../../../pic32mx/lib\libmchp_peripheral_32MX370F512L.a(port_set_pins_digital_out_lib.o)

.text           0x00000000        0x0
 .text          0x00000000        0x0 d:/program files - hdd/mplab compiler x32/bin/bin/../../lib/gcc/pic32mx/4.8.3/../../../../pic32mx/lib\libmchp_peripheral_32MX370F512L.a(port_set_pins_digital_in_lib.o)

.text           0x00000000        0x0
 .text          0x00000000        0x0 d:/program files - hdd/mplab compiler x32/bin/bin/../../lib/gcc/pic32mx/4.8.3/../../../../pic32mx/lib\libmchp_peripheral_32MX370F512L.a(dma_reg_map_tbl_lib.o)

.text           0x00000000        0x0
 .text          0x00000000        0x0 d:/program files - hdd/mplab compiler x32/bin/bin/../../lib/gcc/pic32mx/4.8.3/../../../../pic32mx/lib\libmchp_peripheral_32MX370F512L.a(dma_chn_set_txfer_lib.o)

.text           0x00000000        0x0
 .text          0x00000000        0x0 d:/program files - hdd/mplab compiler x32/bin/bin/../../lib/gcc/pic32mx/4.8.3/../../../../pic32mx/lib\libmchp_peripheral_32MX370F512L.a(dma_chn_set_match_pattern_lib.o)

.text           0x00000000        0x0
 .text          0x00000000        0x0 d:/program files - hdd/mplab compiler x32/bin/bin/../../lib/gcc/pic32mx/4.8.3/../../../../pic32mx/lib\libmchp_peripheral_32MX370F512L.a(dma_chn_write_event_control_flags_lib.o)

.text           0x00000000        0x0
 .text          0x00000000        0x0 d:/program files - hdd/mplab compiler x32/bin/bin/../../lib/gcc/pic32mx/4.8.3/../../../../pic32mx/lib\libmchp_peripheral_32MX370F512L.a(dma_chn_get_ev_flags_lib.o)

.text           0x00000000        0x0
 .text          0x00000000        0x0 d:/program files - hdd/mplab compiler x32/bin/bin/../../lib/gcc/pic32mx/4.8.3/../../../../pic32mx/lib\libmchp_peripheral_32MX370F512L.a(dma_chn_enable_lib.o)

.text           0x00000000        0x0
 .text          0x00000000        0x0 d:/program files - hdd/mplab compiler x32/bin/bin/../../lib/gcc/pic32mx/4.8.3/../../../../pic32mx/lib\libmchp_peripheral_32MX370F512L.a(dma_chn_open_lib.o)

.text           0x00000000        0x0
 .text          0x00000000        0x0 d:/program files - hdd/mplab compiler x32/bin/bin/../../lib/gcc/pic32mx/4.8.3/../../../../pic32mx/lib\libmchp_peripheral_32MX370F512L.a(dma_chn_set_ev_enable_flags_lib.o)

.text           0x00000000        0x0
 .text          0x00000000        0x0 d:/program files - hdd/mplab compiler x32/bin/bin/../../lib/gcc/pic32mx/4.8.3/../../../../pic32mx/lib\libmchp_peripheral_32MX370F512L.a(int_tbl_lib.o)

.text           0x00000000        0x0
 .text          0x00000000        0x0 d:/program files - hdd/mplab compiler x32/bin/bin/../../lib/gcc/pic32mx/4.8.3/../../../../pic32mx/lib\libmchp_peripheral_32MX370F512L.a(int_restore_interrupts_lib.o)

.text           0x00000000        0x0
 .text          0x00000000        0x0 d:/program files - hdd/mplab compiler x32/bin/bin/../../lib/gcc/pic32mx/4.8.3/../../../../pic32mx/lib\libmchp_peripheral_32MX370F512L.a(int_disable_interrupts_lib.o)

.text           0x00000000        0x0
 .text          0x00000000        0x0 d:/program files - hdd/mplab compiler x32/bin/bin/../../lib/gcc/pic32mx/4.8.3/../../../../pic32mx/lib\libmchp_peripheral_32MX370F512L.a(int_enable_interrupts_lib.o)

.text           0x00000000        0x0
 .text          0x00000000        0x0 d:/program files - hdd/mplab compiler x32/bin/bin/../../lib/gcc/pic32mx/4.8.3/../../../../pic32mx/lib\libmchp_peripheral_32MX370F512L.a(int_configure_system_lib.o)

.text           0x00000000        0x0
 .text          0x00000000        0x0 d:/program files - hdd/mplab compiler x32/bin/bin/../../lib/gcc/pic32mx/4.8.3/../../../../pic32mx/lib\libmchp_peripheral_32MX370F512L.a(pcache.o)

.text           0x00000000        0x0
 .text          0x00000000        0x0 d:/program files - hdd/mplab compiler x32/bin/bin/../../lib/gcc/pic32mx/4.8.3/../../../../pic32mx/lib\libmchp_peripheral.a(read_core_timer_lib.o)

.text           0x00000000        0x0
 .text          0x00000000        0x0 d:/program files - hdd/mplab compiler x32/bin/bin/../../lib/gcc/pic32mx/4.8.3/../../../../pic32mx/lib/./proc/32MX370F512L\processor.o

.text           0x00000000        0x0
 .text          0x00000000        0x0 d:/program files - hdd/mplab compiler x32/bin/bin/../../lib/gcc/pic32mx/4.8.3/../../../../pic32mx/lib/./proc/32MX370F512L\default_isr_vectors.o

.text           0x00000000        0x0
 .text          0x00000000        0x0 build/default/production/_ext/1472/CycleData.o

.text           0x00000000        0x0
 .text          0x00000000        0x0 d:/program files - hdd/mplab compiler x32/bin/bin/../../lib/gcc/pic32mx/4.8.3/../../../../pic32mx/lib\debug-exception-return.o

.text           0x00000000        0x0
 .text          0x00000000        0x0 d:/program files - hdd/mplab compiler x32/bin/bin/../../lib/gcc/pic32mx/4.8.3/../../../../pic32mx/lib/./proc/32MX370F512L/crt0_mips32r2.o
